Component: ARM Compiler 5.06 update 6 (build 750) Tool: armlink [4d35ed]

==============================================================================

Section Cross References

    boot_handlers.o(SYS_BOOT) refers to main.o(.text) for main
    boot_vectors.o(SYS_BOOT) refers to boot_handlers.o(SYS_BOOT) for sys_Reset
    boot_vectors.o(SYS_BOOT) refers to intc.o(sys_irq_entry) for SYSirq_IRQ_Handler
    boot_vectors.o(SYS_BOOT) refers to intc.o(sys_fiq_entry) for SYSirq_FIQ_Handler
    main.o(.text) refers to uart.o(.text) for uart0_printf
    main.o(.text) refers to flash.o(.text) for flash_read_data
    main.o(.text) refers to icu.o(.text) for icu_init
    main.o(.text) refers to wdt.o(.text) for wdt_disable
    main.o(.text) refers to intc.o(.text) for intc_init
    main.o(.text) refers to uart2.o(.text) for uart2_init
    main.o(.text) refers to gpio.o(.text) for gpio_init
    main.o(.text) refers to nvds.o(.text) for nvds_init
    main.o(.text) refers to rwip.o(.text) for rwip_init
    main.o(.text) refers to aon_rtc.o(.text) for aon_rtc_init
    main.o(.text) refers to spi.o(.text) for spi_init
    main.o(.text) refers to lcd360.o(.text) for lcd_gpio_init
    main.o(.text) refers to w25x40c.o(.text) for flash_device_spi_init
    main.o(.text) refers to oads.o(.text) for oad_updating_user_section_pro
    main.o(.text) refers to main.o(.bss) for .bss
    main.o(.text) refers to main.o(.constdata) for .constdata
    main.o(.text) refers to boot_handlers.o(SYS_BOOT) for boot_stack_base_UNUSED
    main.o(.text) refers to prf.o(.text) for prf_get_id_from_task
    main.o(.text) refers to rwble.o(.text) for rwble_sleep_wakeup_end
    main.o(.constdata) refers to uart.o(.text) for uart_read
    app.o(.text) refers to flash.o(.text) for flash_read_data
    app.o(.text) refers to app_sec.o(.text) for app_sec_init
    app.o(.text) refers to app_dis.o(.text) for app_dis_init
    app.o(.text) refers to app_batt.o(.text) for app_batt_init
    app.o(.text) refers to app_oads.o(.text) for app_oads_init
    app.o(.text) refers to uart.o(.text) for uart0_printf
    app.o(.text) refers to app.o(.bss) for .bss
    app.o(.text) refers to app_task.o(.constdata) for TASK_DESC_APP
    app.o(.text) refers to app.o(.constdata) for .constdata
    app.o(.constdata) refers to app_f000.o(.text) for app_f000_add_f000s
    app.o(.constdata) refers to app_dis.o(.text) for app_dis_add_dis
    app.o(.constdata) refers to app_batt.o(.text) for app_batt_add_bas
    app.o(.constdata) refers to app_oads.o(.text) for app_oad_add_oads
    app_batt.o(.text) refers to prf.o(.text) for prf_get_task_from_id
    app_batt.o(.text) refers to app_batt.o(.data) for .data
    app_batt.o(.constdata) refers to app_batt.o(.text) for app_batt_msg_dflt_handler
    app_batt.o(.constdata) refers to app_batt.o(.constdata) for app_batt_msg_handler_list
    app_dis.o(.constdata) refers to app_dis.o(.text) for diss_value_req_ind_handler
    app_dis.o(.constdata) refers to app_dis.o(.constdata) for app_dis_msg_handler_list
    app_oads.o(.text) refers to uart.o(.text) for uart0_printf
    app_oads.o(.text) refers to prf.o(.text) for prf_get_task_from_id
    app_oads.o(.text) refers to oads.o(.text) for oadImgIdentifyWrite
    app_oads.o(.text) refers to app_oads.o(.data) for .data
    app_oads.o(.text) refers to app_oads.o(.constdata) for .constdata
    app_oads.o(.constdata) refers to app_oads.o(.text) for app_oads_msg_dflt_handler
    app_oads.o(.constdata) refers to app_oads.o(.constdata) for app_oads_msg_handler_list
    app_sec.o(.text) refers to nvds.o(.text) for nvds_get
    app_sec.o(.text) refers to uart.o(.text) for uart0_printf
    app_sec.o(.text) refers to app.o(.text) for appm_disconnect
    app_sec.o(.text) refers to app_sec.o(.data) for .data
    app_sec.o(.text) refers to app_sec.o(.constdata) for .constdata
    app_sec.o(.text) refers to app.o(.bss) for app_env
    app_sec.o(.constdata) refers to app_sec.o(.conststring) for .conststring
    app_sec.o(.constdata) refers to app_sec.o(.text) for app_sec_msg_dflt_handler
    app_sec.o(.constdata) refers to app_sec.o(.constdata) for app_sec_msg_handler_list
    app_task.o(.text) refers to app.o(.text) for appm_adv_fsm_next
    app_task.o(.text) refers to uart.o(.text) for uart0_printf
    app_task.o(.text) refers to nvds.o(.text) for nvds_get
    app_task.o(.text) refers to app_sec.o(.text) for app_sec_get_bond_status
    app_task.o(.text) refers to dflt_clz.o(x$fpl$dfltu) for __aeabi_ui2d
    app_task.o(.text) refers to dmul.o(x$fpl$dmul) for __aeabi_dmul
    app_task.o(.text) refers to app_batt.o(.text) for app_batt_enable_prf
    app_task.o(.text) refers to app.o(.bss) for app_env
    app_task.o(.text) refers to app_task.o(.constdata) for .constdata
    app_task.o(.text) refers to app_sec.o(.data) for app_sec_env
    app_task.o(.text) refers to app_ancsc.o(.text) for app_ancsc_enable_prf
    app_task.o(.text) refers to app_dis.o(.constdata) for app_dis_handlers
    app_task.o(.text) refers to app_f000.o(.constdata) for app_f000_handler
    app_task.o(.text) refers to app_sec.o(.constdata) for app_sec_handlers
    app_task.o(.text) refers to app_batt.o(.constdata) for app_batt_handlers
    app_task.o(.text) refers to app_oads.o(.constdata) for app_oads_handler
    app_task.o(.constdata) refers to app_task.o(.text) for appm_msg_handler
    app_task.o(.constdata) refers to app_task.o(.constdata) for appm_msg_handler_tab
    app_task.o(.constdata) refers to app_task.o(.data) for appm_state
    app_ancsc.o(.text) refers to uart.o(.text) for uart0_printf
    app_ancsc.o(.text) refers to prf.o(.text) for prf_get_task_from_id
    app_ancsc.o(.text) refers to app_ancsc.o(.constdata) for .constdata
    app_ancsc.o(.text) refers to app_ancsc.o(.data) for .data
    app_ancsc.o(.constdata) refers to app_ancsc.o(.text) for app_ancsc_msg_dflt_handler
    app_ancsc.o(.constdata) refers to app_ancsc.o(.constdata) for app_ancsc_msg_handler_list
    rwble.o(.text) refers to uart.o(.text) for uart0_printf
    rwble.o(.text) refers to rwble.o(.constdata) for .constdata
    rwble.o(.text) refers to rwble.o(.data) for .data
    rwip.o(.text) refers to rf_xvr.o(.text) for rf_init
    rwip.o(.text) refers to main.o(.text) for rwip_eif_get
    rwip.o(.text) refers to uart.o(.text) for uart0_printf
    rwip.o(.text) refers to rwble.o(.text) for rwble_init
    rwip.o(.text) refers to app.o(.text) for appm_init
    rwip.o(.text) refers to rwip.o(.data) for .data
    rwip.o(.text) refers to nvds.o(.text) for nvds_get
    rwip.o(.text) refers to rwip.o(ke_heap) for ke_heap
    rwip.o(.text) refers to rwip.o(.bss) for .bss
    nvds.o(.text) refers to flash.o(.text) for flash_read
    nvds.o(.text) refers to nvds.o(.bss) for .bss
    nvds.o(.text) refers to nvds.o(.constdata) for .constdata
    prf_utils.o(.text) refers to prf.o(.text) for prf_src_task_get
    prf.o(.text) refers to bass.o(.text) for bass_prf_itf_get
    prf.o(.text) refers to f000s.o(.text) for f000s_prf_itf_get
    prf.o(.text) refers to oads.o(.text) for oads_prf_itf_get
    prf.o(.text) refers to ancsc.o(.text) for ancsc_prf_itf_get
    prf.o(.text) refers to diss.o(.text) for diss_prf_itf_get
    prf.o(.text) refers to uart.o(.text) for uart0_printf
    prf.o(.text) refers to prf.o(.bss) for .bss
    flash.o(.text) refers to uart.o(.text) for uart0_printf
    flash.o(.text) refers to flash.o(.data) for .data
    rf_xvr.o(.text) refers to uart.o(.text) for uart0_printf
    rf_xvr.o(.text) refers to rf_xvr.o(.constdata) for .constdata
    rf_xvr.o(.text) refers to rf_xvr.o(.bss) for .bss
    gpio.o(.text) refers to gpio.o(.data) for .data
    spi.o(.text) refers to gpio.o(.text) for gpio_config
    spi.o(.text) refers to uart.o(.text) for uart0_printf
    spi.o(.text) refers to dma.o(.text) for dma_config_write
    spi.o(.text) refers to spi.o(.bss) for .bss
    spi.o(.text) refers to spi.o(.data) for .data
    icu.o(.text) refers to flash.o(.text) for set_flash_clk
    icu.o(.text) refers to rf_xvr.o(.text) for Delay_us
    icu.o(.text) refers to icu.o(.data) for .data
    icu.o(.text) refers to rf_xvr.o(.bss) for XVR_ANALOG_REG_BAK
    adc.o(.text) refers to gpio.o(.text) for gpio_config
    adc.o(.text) refers to uart.o(.text) for uart0_printf
    adc.o(.text) refers to rf_xvr.o(.text) for Delay_us
    adc.o(.text) refers to adc.o(.data) for .data
    uart2.o(.text) refers to gpio.o(.text) for gpio_config
    uart2.o(.text) refers to vsprintf.o(.text) for vsprintf
    uart2.o(.text) refers to uart2.o(.data) for .data
    uart2.o(.text) refers to uart2.o(.bss) for .bss
    uart.o(.text) refers to gpio.o(.text) for gpio_config
    uart.o(.text) refers to vsprintf.o(.text) for vsprintf
    uart.o(.text) refers to icu.o(.text) for cpu_reset
    uart.o(.text) refers to uart.o(.data) for .data
    uart.o(.text) refers to uart.o(.bss) for .bss
    aon_rtc.o(.text) refers to uart.o(.text) for uart0_printf
    aon_rtc.o(.text) refers to aon_rtc.o(.data) for .data
    intc.o(.text) refers to uart.o(.text) for uart_isr
    intc.o(.text) refers to uart2.o(.text) for uart2_isr
    intc.o(.text) refers to aon_rtc.o(.text) for aon_rtc_isr
    intc.o(.text) refers to gpio.o(.text) for gpio_isr
    intc.o(.text) refers to spi.o(.text) for spi_isr
    intc.o(.text) refers to rwip.o(.text) for rwip_isr
    intc.o(.text) refers to rwble.o(.text) for rwble_isr
    intc.o(.text) refers to dma.o(.text) for dma_isr
    intc.o(sys_fiq_entry) refers to intc.o(.text) for intc_fiq
    intc.o(sys_irq_entry) refers to intc.o(.text) for intc_irq
    i2c.o(.text) refers to uart.o(.text) for uart0_printf
    i2c.o(.text) refers to gpio.o(.text) for gpio_config
    i2c.o(.text) refers to i2c.o(.data) for .data
    diss.o(.text) refers to diss_task.o(.text) for diss_task_init
    diss.o(.text) refers to diss.o(.constdata) for .constdata
    diss.o(.constdata) refers to diss.o(.text) for diss_init
    diss_task.o(.text) refers to prf.o(.text) for prf_env_get
    diss_task.o(.text) refers to diss.o(.text) for diss_value_to_handle
    diss_task.o(.text) refers to diss_task.o(.constdata) for .constdata
    diss_task.o(.constdata) refers to diss_task.o(.text) for diss_set_value_req_handler
    bass.o(.text) refers to bass_task.o(.text) for bass_task_init
    bass.o(.text) refers to prf.o(.text) for prf_env_get
    bass.o(.text) refers to bass.o(.constdata) for .constdata
    bass.o(.constdata) refers to bass.o(.text) for bass_init
    bass_task.o(.text) refers to prf.o(.text) for prf_env_get
    bass_task.o(.text) refers to bass.o(.text) for bass_exe_operation
    bass_task.o(.text) refers to prf_utils.o(.text) for prf_pack_char_pres_fmt
    bass_task.o(.text) refers to bass_task.o(.constdata) for .constdata
    bass_task.o(.constdata) refers to bass_task.o(.text) for bass_enable_req_handler
    ancsc.o(.text) refers to ancsc_task.o(.text) for ancsc_task_init
    ancsc.o(.text) refers to prf.o(.text) for prf_src_task_get
    ancsc.o(.text) refers to prf_utils.o(.text) for prf_register_atthdl2gatt
    ancsc.o(.text) refers to ancsc.o(.constdata) for .constdata
    ancsc.o(.constdata) refers to ancsc.o(.text) for ancsc_init
    ancsc_task.o(.text) refers to prf.o(.text) for prf_env_get
    ancsc_task.o(.text) refers to ancsc.o(.text) for ancsc_enable_rsp_send
    ancsc_task.o(.text) refers to prf_utils.o(.text) for prf_disc_svc_send_uuid128
    ancsc_task.o(.text) refers to uart.o(.text) for uart0_printf
    ancsc_task.o(.text) refers to ancsc_task.o(.constdata) for .constdata
    ancsc_task.o(.text) refers to ancsc_task.o(.conststring) for .conststring
    ancsc_task.o(.constdata) refers to ancsc_task.o(.text) for ancsc_msg_default_handler
    oads.o(.text) refers to uart.o(.text) for uart0_printf
    oads.o(.text) refers to oads_task.o(.text) for oads_task_init
    oads.o(.text) refers to flash.o(.text) for flash_write
    oads.o(.text) refers to wdt.o(.text) for wdt_enable
    oads.o(.text) refers to prf.o(.text) for prf_env_get
    oads.o(.text) refers to oads.o(.constdata) for .constdata
    oads.o(.text) refers to oads.o(.bss) for .bss
    oads.o(.text) refers to oads.o(.data) for .data
    oads.o(.text) refers to app.o(.text) for appm_update_param
    oads.o(.constdata) refers to oads.o(.text) for oads_init
    oads_task.o(.text) refers to uart.o(.text) for uart0_printf
    oads_task.o(.text) refers to prf.o(.text) for prf_env_get
    oads_task.o(.text) refers to oads.o(.text) for oadImgIdentifyWrite
    oads_task.o(.text) refers to oads_task.o(.constdata) for .constdata
    oads_task.o(.constdata) refers to oads_task.o(.text) for oads_enable_req_handler
    w25x40c.o(.text) refers to spi.o(.text) for spi_write
    w25x40c.o(.text) refers to gpio.o(.text) for gpio_set
    w25x40c.o(.text) refers to uart.o(.text) for uart0_printf
    lcd360.o(.text) refers to gpio.o(.text) for gpio_get_input
    lcd360.o(.text) refers to uart.o(.text) for uart0_printf
    lcd360.o(.text) refers to spi.o(.text) for spi_write
    lcd360.o(.text) refers to lcd360.o(.data) for .data
    app_f000.o(.text) refers to prf.o(.text) for prf_get_task_from_id
    app_f000.o(.text) refers to uart.o(.text) for uart0_printf
    app_f000.o(.text) refers to app_f000.o(.data) for .data
    app_f000.o(.text) refers to app_f000.o(.constdata) for .constdata
    app_f000.o(.constdata) refers to app_f000.o(.text) for app_f000_msg_dflt_handler
    app_f000.o(.constdata) refers to app_f000.o(.constdata) for app_f000_msg_handler_list
    f000s.o(.text) refers to f000s_task.o(.text) for f000s_task_init
    f000s.o(.text) refers to prf.o(.text) for prf_env_get
    f000s.o(.text) refers to f000s.o(.constdata) for .constdata
    f000s.o(.constdata) refers to f000s.o(.text) for f000s_init
    f000s_task.o(.text) refers to uart.o(.text) for uart0_printf
    f000s_task.o(.text) refers to prf.o(.text) for prf_env_get
    f000s_task.o(.text) refers to f000s.o(.text) for f000s_notify_f004_val
    f000s_task.o(.text) refers to f000s_task.o(.constdata) for .constdata
    f000s_task.o(.constdata) refers to f000s_task.o(.text) for f000s_f004_val_upd_req_handler
    vsprintf.o(.text) refers (Special) to _printf_a.o(.ARM.Collect$$_printf_percent$$00000006) for _printf_a
    vsprintf.o(.text) refers (Special) to _printf_c.o(.ARM.Collect$$_printf_percent$$00000013) for _printf_c
    vsprintf.o(.text) refers (Special) to _printf_charcount.o(.text) for _printf_charcount
    vsprintf.o(.text) refers (Special) to _printf_d.o(.ARM.Collect$$_printf_percent$$00000009) for _printf_d
    vsprintf.o(.text) refers (Special) to _printf_e.o(.ARM.Collect$$_printf_percent$$00000004) for _printf_e
    vsprintf.o(.text) refers (Special) to _printf_f.o(.ARM.Collect$$_printf_percent$$00000003) for _printf_f
    vsprintf.o(.text) refers (Special) to printf1.o(x$fpl$printf1) for _printf_fp_dec
    vsprintf.o(.text) refers (Special) to printf2.o(x$fpl$printf2) for _printf_fp_hex
    vsprintf.o(.text) refers (Special) to _printf_g.o(.ARM.Collect$$_printf_percent$$00000005) for _printf_g
    vsprintf.o(.text) refers (Special) to _printf_i.o(.ARM.Collect$$_printf_percent$$00000008) for _printf_i
    vsprintf.o(.text) refers (Special) to _printf_dec.o(.text) for _printf_int_dec
    vsprintf.o(.text) refers (Special) to _printf_l.o(.ARM.Collect$$_printf_percent$$00000012) for _printf_l
    vsprintf.o(.text) refers (Special) to _printf_lc.o(.ARM.Collect$$_printf_percent$$00000015) for _printf_lc
    vsprintf.o(.text) refers (Special) to _printf_ll.o(.ARM.Collect$$_printf_percent$$00000007) for _printf_ll
    vsprintf.o(.text) refers (Special) to _printf_lld.o(.ARM.Collect$$_printf_percent$$0000000E) for _printf_lld
    vsprintf.o(.text) refers (Special) to _printf_lli.o(.ARM.Collect$$_printf_percent$$0000000D) for _printf_lli
    vsprintf.o(.text) refers (Special) to _printf_llo.o(.ARM.Collect$$_printf_percent$$00000010) for _printf_llo
    vsprintf.o(.text) refers (Special) to _printf_llu.o(.ARM.Collect$$_printf_percent$$0000000F) for _printf_llu
    vsprintf.o(.text) refers (Special) to _printf_llx.o(.ARM.Collect$$_printf_percent$$00000011) for _printf_llx
    vsprintf.o(.text) refers (Special) to _printf_longlong_dec.o(.text) for _printf_longlong_dec
    vsprintf.o(.text) refers (Special) to _printf_hex_int_ll_ptr.o(.text) for _printf_longlong_hex
    vsprintf.o(.text) refers (Special) to _printf_oct_int_ll.o(.text) for _printf_longlong_oct
    vsprintf.o(.text) refers (Special) to _printf_ls.o(.ARM.Collect$$_printf_percent$$00000016) for _printf_ls
    vsprintf.o(.text) refers (Special) to _printf_n.o(.ARM.Collect$$_printf_percent$$00000001) for _printf_n
    vsprintf.o(.text) refers (Special) to _printf_o.o(.ARM.Collect$$_printf_percent$$0000000B) for _printf_o
    vsprintf.o(.text) refers (Special) to _printf_p.o(.ARM.Collect$$_printf_percent$$00000002) for _printf_p
    vsprintf.o(.text) refers (Special) to _printf_percent.o(.ARM.Collect$$_printf_percent$$00000000) for _printf_percent
    vsprintf.o(.text) refers (Special) to _printf_pad.o(.text) for _printf_post_padding
    vsprintf.o(.text) refers (Special) to _printf_s.o(.ARM.Collect$$_printf_percent$$00000014) for _printf_s
    vsprintf.o(.text) refers (Special) to _printf_str.o(.text) for _printf_str
    vsprintf.o(.text) refers (Special) to _printf_truncate.o(.text) for _printf_truncate_signed
    vsprintf.o(.text) refers (Special) to _printf_u.o(.ARM.Collect$$_printf_percent$$0000000A) for _printf_u
    vsprintf.o(.text) refers (Special) to _printf_wctomb.o(.text) for _printf_wctomb
    vsprintf.o(.text) refers (Special) to _printf_x.o(.ARM.Collect$$_printf_percent$$0000000C) for _printf_x
    vsprintf.o(.text) refers to _printf_char_common.o(.text) for _printf_char_common
    vsprintf.o(.text) refers to _sputc.o(.text) for _sputc
    __main.o(!!!main) refers to __rtentry.o(.ARM.Collect$$rtentry$$00000000) for __rt_entry
    dflt_clz.o(x$fpl$dfltu) refers (Special) to usenofp.o(x$fpl$usenofp) for __I$use$fp
    dflt_clz.o(x$fpl$dflt) refers (Special) to usenofp.o(x$fpl$usenofp) for __I$use$fp
    dflt_clz.o(x$fpl$dfltn) refers (Special) to usenofp.o(x$fpl$usenofp) for __I$use$fp
    dmul.o(x$fpl$dmul) refers (Special) to usenofp.o(x$fpl$usenofp) for __I$use$fp
    dmul.o(x$fpl$dmul) refers to dretinf.o(x$fpl$dretinf) for __fpl_dretinf
    dmul.o(x$fpl$dmul) refers to dnaninf.o(x$fpl$dnaninf) for __fpl_dnaninf
    __rtentry.o(.ARM.Collect$$rtentry$$00000000) refers (Special) to __rtentry2.o(.ARM.Collect$$rtentry$$0000000A) for __rt_entry_li
    __rtentry.o(.ARM.Collect$$rtentry$$00000000) refers (Special) to __rtentry2.o(.ARM.Collect$$rtentry$$0000000D) for __rt_entry_main
    __rtentry.o(.ARM.Collect$$rtentry$$00000000) refers (Special) to __rtentry2.o(.ARM.Collect$$rtentry$$0000000C) for __rt_entry_postli_1
    __rtentry.o(.ARM.Collect$$rtentry$$00000000) refers (Special) to __rtentry2.o(.ARM.Collect$$rtentry$$00000009) for __rt_entry_postsh_1
    __rtentry.o(.ARM.Collect$$rtentry$$00000000) refers (Special) to __rtentry2.o(.ARM.Collect$$rtentry$$00000002) for __rt_entry_presh_1
    __rtentry.o(.ARM.Collect$$rtentry$$00000000) refers (Special) to __rtentry5.o(.ARM.Collect$$rtentry$$00000005) for __rt_entry_sh
    __printf.o(.text) refers to _printf_percent.o(.ARM.Collect$$_printf_percent$$00000000) for _printf_percent
    _printf_str.o(.text) refers (Special) to _printf_char.o(.text) for _printf_cs_common
    _printf_str.o(.text) refers (Weak) to _printf_pad.o(.text) for _printf_pre_padding
    _printf_str.o(.text) refers (Weak) to _printf_pad.o(.text) for _printf_post_padding
    _printf_dec.o(.text) refers (Weak) to _printf_truncate.o(.text) for _printf_truncate_signed
    _printf_dec.o(.text) refers (Weak) to _printf_truncate.o(.text) for _printf_truncate_unsigned
    _printf_dec.o(.text) refers to rtudiv10.o(.text) for __rt_udiv10
    _printf_dec.o(.text) refers to _printf_intcommon.o(.text) for _printf_int_common
    _printf_char_common.o(.text) refers to __printf_flags_ss_wp.o(.text) for __printf
    _printf_wctomb.o(.text) refers (Special) to _printf_wchar.o(.text) for _printf_lcs_common
    _printf_wctomb.o(.text) refers to _wcrtomb.o(.text) for _wcrtomb
    _printf_wctomb.o(.text) refers (Weak) to _printf_pad.o(.text) for _printf_pre_padding
    _printf_wctomb.o(.text) refers (Weak) to _printf_pad.o(.text) for _printf_post_padding
    _printf_wctomb.o(.text) refers to _printf_wctomb.o(.constdata) for .constdata
    _printf_wctomb.o(.constdata) refers (Special) to _printf_wchar.o(.text) for _printf_lcs_common
    _printf_longlong_dec.o(.text) refers to lludiv10.o(.text) for _ll_udiv10
    _printf_longlong_dec.o(.text) refers to _printf_intcommon.o(.text) for _printf_int_common
    _printf_oct_ll.o(.text) refers to _printf_intcommon.o(.text) for _printf_int_common
    _printf_oct_int.o(.text) refers (Weak) to _printf_truncate.o(.text) for _printf_truncate_unsigned
    _printf_oct_int.o(.text) refers to _printf_intcommon.o(.text) for _printf_int_common
    _printf_oct_int_ll.o(.text) refers to _printf_intcommon.o(.text) for _printf_int_common
    _printf_oct_int_ll.o(.text) refers (Weak) to _printf_truncate.o(.text) for _printf_truncate_unsigned
    _printf_hex_ll.o(.text) refers to _printf_intcommon.o(.text) for _printf_int_common
    _printf_hex_ll.o(.text) refers to _printf_hex_ll.o(.constdata) for .constdata
    _printf_hex_int.o(.text) refers (Weak) to _printf_truncate.o(.text) for _printf_truncate_unsigned
    _printf_hex_int.o(.text) refers to _printf_intcommon.o(.text) for _printf_int_common
    _printf_hex_int.o(.text) refers to _printf_hex_int.o(.constdata) for .constdata
    _printf_hex_int_ll.o(.text) refers to _printf_intcommon.o(.text) for _printf_int_common
    _printf_hex_int_ll.o(.text) refers (Weak) to _printf_truncate.o(.text) for _printf_truncate_unsigned
    _printf_hex_int_ll.o(.text) refers to _printf_hex_int_ll.o(.constdata) for .constdata
    _printf_hex_ptr.o(.text) refers to _printf_intcommon.o(.text) for _printf_int_common
    _printf_hex_ptr.o(.text) refers to _printf_hex_ptr.o(.constdata) for .constdata
    _printf_hex_int_ptr.o(.text) refers to _printf_intcommon.o(.text) for _printf_int_common
    _printf_hex_int_ptr.o(.text) refers (Weak) to _printf_truncate.o(.text) for _printf_truncate_unsigned
    _printf_hex_int_ptr.o(.text) refers to _printf_hex_int_ptr.o(.constdata) for .constdata
    _printf_hex_ll_ptr.o(.text) refers to _printf_intcommon.o(.text) for _printf_int_common
    _printf_hex_ll_ptr.o(.text) refers to _printf_hex_ll_ptr.o(.constdata) for .constdata
    _printf_hex_int_ll_ptr.o(.text) refers to _printf_intcommon.o(.text) for _printf_int_common
    _printf_hex_int_ll_ptr.o(.text) refers (Weak) to _printf_truncate.o(.text) for _printf_truncate_unsigned
    _printf_hex_int_ll_ptr.o(.text) refers to _printf_hex_int_ll_ptr.o(.constdata) for .constdata
    __printf_flags.o(.text) refers to _printf_percent.o(.ARM.Collect$$_printf_percent$$00000000) for _printf_percent
    __printf_flags.o(.text) refers to __printf_flags.o(.constdata) for .constdata
    __printf_ss.o(.text) refers to _printf_percent.o(.ARM.Collect$$_printf_percent$$00000000) for _printf_percent
    __printf_flags_ss.o(.text) refers to _printf_percent.o(.ARM.Collect$$_printf_percent$$00000000) for _printf_percent
    __printf_flags_ss.o(.text) refers to __printf_flags_ss.o(.constdata) for .constdata
    __printf_wp.o(.text) refers to __printf_wp.o(i._is_digit) for _is_digit
    __printf_wp.o(.text) refers to _printf_percent.o(.ARM.Collect$$_printf_percent$$00000000) for _printf_percent
    __printf_flags_wp.o(.text) refers to __printf_wp.o(i._is_digit) for _is_digit
    __printf_flags_wp.o(.text) refers to _printf_percent.o(.ARM.Collect$$_printf_percent$$00000000) for _printf_percent
    __printf_flags_wp.o(.text) refers to __printf_flags_wp.o(.constdata) for .constdata
    __printf_ss_wp.o(.text) refers to __printf_wp.o(i._is_digit) for _is_digit
    __printf_ss_wp.o(.text) refers to _printf_percent.o(.ARM.Collect$$_printf_percent$$00000000) for _printf_percent
    __printf_flags_ss_wp.o(.text) refers to __printf_wp.o(i._is_digit) for _is_digit
    __printf_flags_ss_wp.o(.text) refers to _printf_percent.o(.ARM.Collect$$_printf_percent$$00000000) for _printf_percent
    __printf_flags_ss_wp.o(.text) refers to __printf_flags_ss_wp.o(.constdata) for .constdata
    _printf_c.o(.ARM.Collect$$_printf_percent$$00000013) refers (Weak) to _printf_char.o(.text) for _printf_char
    _printf_s.o(.ARM.Collect$$_printf_percent$$00000014) refers (Weak) to _printf_char.o(.text) for _printf_string
    _printf_n.o(.ARM.Collect$$_printf_percent$$00000001) refers (Weak) to _printf_charcount.o(.text) for _printf_charcount
    _printf_x.o(.ARM.Collect$$_printf_percent$$0000000C) refers (Weak) to _printf_hex_int_ll_ptr.o(.text) for _printf_int_hex
    _printf_p.o(.ARM.Collect$$_printf_percent$$00000002) refers (Weak) to _printf_hex_int_ll_ptr.o(.text) for _printf_hex_ptr
    _printf_o.o(.ARM.Collect$$_printf_percent$$0000000B) refers (Weak) to _printf_oct_int_ll.o(.text) for _printf_int_oct
    _printf_i.o(.ARM.Collect$$_printf_percent$$00000008) refers (Weak) to _printf_dec.o(.text) for _printf_int_dec
    _printf_d.o(.ARM.Collect$$_printf_percent$$00000009) refers (Weak) to _printf_dec.o(.text) for _printf_int_dec
    _printf_u.o(.ARM.Collect$$_printf_percent$$0000000A) refers (Weak) to _printf_dec.o(.text) for _printf_int_dec
    _printf_f.o(.ARM.Collect$$_printf_percent$$00000003) refers (Weak) to printf1.o(x$fpl$printf1) for _printf_fp_dec
    _printf_e.o(.ARM.Collect$$_printf_percent$$00000004) refers (Weak) to printf1.o(x$fpl$printf1) for _printf_fp_dec
    _printf_g.o(.ARM.Collect$$_printf_percent$$00000005) refers (Weak) to printf1.o(x$fpl$printf1) for _printf_fp_dec
    _printf_a.o(.ARM.Collect$$_printf_percent$$00000006) refers (Weak) to printf2.o(x$fpl$printf2) for _printf_fp_hex
    _printf_percent.o(.ARM.Collect$$_printf_percent$$00000000) refers (Special) to _printf_percent_end.o(.ARM.Collect$$_printf_percent$$00000017) for _printf_percent_end
    _printf_lli.o(.ARM.Collect$$_printf_percent$$0000000D) refers (Special) to _printf_ll.o(.ARM.Collect$$_printf_percent$$00000007) for _printf_ll
    _printf_lli.o(.ARM.Collect$$_printf_percent$$0000000D) refers (Weak) to _printf_longlong_dec.o(.text) for _printf_longlong_dec
    _printf_lld.o(.ARM.Collect$$_printf_percent$$0000000E) refers (Special) to _printf_ll.o(.ARM.Collect$$_printf_percent$$00000007) for _printf_ll
    _printf_lld.o(.ARM.Collect$$_printf_percent$$0000000E) refers (Weak) to _printf_longlong_dec.o(.text) for _printf_longlong_dec
    _printf_llu.o(.ARM.Collect$$_printf_percent$$0000000F) refers (Special) to _printf_ll.o(.ARM.Collect$$_printf_percent$$00000007) for _printf_ll
    _printf_llu.o(.ARM.Collect$$_printf_percent$$0000000F) refers (Weak) to _printf_longlong_dec.o(.text) for _printf_longlong_dec
    _printf_lc.o(.ARM.Collect$$_printf_percent$$00000015) refers (Special) to _printf_l.o(.ARM.Collect$$_printf_percent$$00000012) for _printf_l
    _printf_lc.o(.ARM.Collect$$_printf_percent$$00000015) refers (Weak) to _printf_wchar.o(.text) for _printf_wchar
    _printf_ls.o(.ARM.Collect$$_printf_percent$$00000016) refers (Special) to _printf_l.o(.ARM.Collect$$_printf_percent$$00000012) for _printf_l
    _printf_ls.o(.ARM.Collect$$_printf_percent$$00000016) refers (Weak) to _printf_wchar.o(.text) for _printf_wstring
    _printf_llo.o(.ARM.Collect$$_printf_percent$$00000010) refers (Special) to _printf_ll.o(.ARM.Collect$$_printf_percent$$00000007) for _printf_ll
    _printf_llo.o(.ARM.Collect$$_printf_percent$$00000010) refers (Weak) to _printf_oct_int_ll.o(.text) for _printf_ll_oct
    _printf_llx.o(.ARM.Collect$$_printf_percent$$00000011) refers (Special) to _printf_ll.o(.ARM.Collect$$_printf_percent$$00000007) for _printf_ll
    _printf_llx.o(.ARM.Collect$$_printf_percent$$00000011) refers (Weak) to _printf_hex_int_ll_ptr.o(.text) for _printf_ll_hex
    dnaninf.o(x$fpl$dnaninf) refers (Special) to usenofp.o(x$fpl$usenofp) for __I$use$fp
    dretinf.o(x$fpl$dretinf) refers (Special) to usenofp.o(x$fpl$usenofp) for __I$use$fp
    printf1.o(x$fpl$printf1) refers to _printf_fp_dec.o(.text) for _printf_fp_dec_real
    printf2.o(x$fpl$printf2) refers to _printf_fp_hex.o(.text) for _printf_fp_hex_real
    printf2b.o(x$fpl$printf2) refers to _printf_fp_hex.o(.text) for _printf_fp_hex_real
    __rtentry2.o(.ARM.Collect$$rtentry$$00000008) refers to boardinit2.o(.text) for _platform_post_stackheap_init
    __rtentry2.o(.ARM.Collect$$rtentry$$0000000A) refers to libinit.o(.ARM.Collect$$libinit$$00000000) for __rt_lib_init
    __rtentry2.o(.ARM.Collect$$rtentry$$0000000B) refers to boardinit3.o(.text) for _platform_post_lib_init
    __rtentry2.o(.ARM.Collect$$rtentry$$0000000D) refers to exit.o(.text) for exit
    __rtentry2.o(.ARM.Collect$$rtentry$$0000000D) refers to main.o(.text) for main
    __rtentry2.o(.ARM.exidx) refers to __rtentry2.o(.ARM.Collect$$rtentry$$00000001) for .ARM.Collect$$rtentry$$00000001
    __rtentry2.o(.ARM.exidx) refers to __rtentry2.o(.ARM.Collect$$rtentry$$00000008) for .ARM.Collect$$rtentry$$00000008
    __rtentry2.o(.ARM.exidx) refers to __rtentry2.o(.ARM.Collect$$rtentry$$0000000A) for .ARM.Collect$$rtentry$$0000000A
    __rtentry2.o(.ARM.exidx) refers to __rtentry2.o(.ARM.Collect$$rtentry$$0000000B) for .ARM.Collect$$rtentry$$0000000B
    __rtentry2.o(.ARM.exidx) refers to __rtentry2.o(.ARM.Collect$$rtentry$$0000000D) for .ARM.Collect$$rtentry$$0000000D
    __rtentry4.o(.ARM.Collect$$rtentry$$00000004) refers to sys_stackheap_outer.o(.text) for __user_setup_stackheap
    __rtentry4.o(.ARM.exidx) refers to __rtentry4.o(.ARM.Collect$$rtentry$$00000004) for .ARM.Collect$$rtentry$$00000004
    __rtentry5.o(.ARM.Collect$$rtentry$$00000005) refers to __rtentry5.o(.ARM.Collect$$rtentry$$00002716) for __lit__00000000
    __rtentry5.o(.ARM.exidx) refers to __rtentry5.o(.ARM.Collect$$rtentry$$00000005) for .ARM.Collect$$rtentry$$00000005
    __rtentry5.o(.ARM.exidx) refers to __rtentry5.o(.ARM.Collect$$rtentry$$00002716) for .ARM.Collect$$rtentry$$00002716
    _printf_intcommon.o(.text) refers (Weak) to _printf_pad.o(.text) for _printf_pre_padding
    _printf_intcommon.o(.text) refers (Weak) to _printf_pad.o(.text) for _printf_pre_padding
    _printf_intcommon.o(.text) refers (Weak) to _printf_pad.o(.text) for _printf_post_padding
    _printf_fp_dec.o(.text) refers (Special) to usenofp.o(x$fpl$usenofp) for __I$use$fp
    _printf_fp_dec.o(.text) refers (Special) to lc_numeric_c.o(locale$$code) for _get_lc_numeric
    _printf_fp_dec.o(.text) refers to istatus.o(x$fpl$ieeestatus) for __ieee_status
    _printf_fp_dec.o(.text) refers to bigflt0.o(.text) for _btod_etento
    _printf_fp_dec.o(.text) refers to btod.o(CL$$btod_d2e) for _btod_d2e
    _printf_fp_dec.o(.text) refers to btod.o(CL$$btod_ediv) for _btod_ediv
    _printf_fp_dec.o(.text) refers to btod.o(CL$$btod_emul) for _btod_emul
    _printf_fp_dec.o(.text) refers to lludiv10.o(.text) for _ll_udiv10
    _printf_fp_dec.o(.text) refers to fpclassify.o(i.__ARM_fpclassify) for __ARM_fpclassify
    _printf_fp_dec.o(.text) refers to _printf_fp_infnan.o(.text) for _printf_fp_infnan
    _printf_fp_dec.o(.text) refers to rtudiv10.o(.text) for __rt_udiv10
    _printf_fp_dec.o(.text) refers (Weak) to _printf_pad.o(.text) for _printf_pre_padding
    _printf_fp_dec.o(.text) refers (Weak) to _printf_pad.o(.text) for _printf_pre_padding
    _printf_fp_dec.o(.text) refers to rt_locale_intlibspace.o(.text) for __rt_locale
    _printf_fp_dec.o(.text) refers (Weak) to _printf_pad.o(.text) for _printf_post_padding
    _printf_fp_hex.o(.text) refers (Special) to usenofp.o(x$fpl$usenofp) for __I$use$fp
    _printf_fp_hex.o(.text) refers to fpclassify.o(i.__ARM_fpclassify) for __ARM_fpclassify
    _printf_fp_hex.o(.text) refers to _printf_fp_infnan.o(.text) for _printf_fp_infnan
    _printf_fp_hex.o(.text) refers to istatus.o(x$fpl$ieeestatus) for __ieee_status
    _printf_fp_hex.o(.text) refers (Weak) to _printf_pad.o(.text) for _printf_pre_padding
    _printf_fp_hex.o(.text) refers (Weak) to _printf_pad.o(.text) for _printf_pre_padding
    _printf_fp_hex.o(.text) refers (Weak) to _printf_pad.o(.text) for _printf_post_padding
    _printf_fp_hex.o(.text) refers to _printf_fp_hex.o(.constdata) for .constdata
    _printf_fp_hex.o(.constdata) refers (Special) to usenofp.o(x$fpl$usenofp) for __I$use$fp
    _printf_char.o(.text) refers (Weak) to _printf_str.o(.text) for _printf_str
    _printf_wchar.o(.text) refers (Weak) to _printf_wctomb.o(.text) for _printf_wctomb
    _wcrtomb.o(.text) refers to rt_ctype_table.o(.text) for __rt_ctype_table
    sys_stackheap_outer.o(.text) refers to libspace.o(.text) for __user_perproc_libspace
    sys_stackheap_outer.o(.text) refers to sys_stackheap.o(.text) for __user_initial_stackheap
    rt_ctype_table.o(.text) refers to rt_locale_intlibspace.o(.text) for __rt_locale
    rt_ctype_table.o(.text) refers to lc_ctype_c.o(locale$$code) for _get_lc_ctype
    rt_locale.o(.text) refers to rt_locale.o(.bss) for __rt_locale_data
    rt_locale_intlibspace.o(.text) refers to libspace.o(.bss) for __libspace_start
    _printf_fp_infnan.o(.text) refers (Weak) to _printf_pad.o(.text) for _printf_pre_padding
    _printf_fp_infnan.o(.text) refers (Weak) to _printf_pad.o(.text) for _printf_post_padding
    bigflt0.o(.text) refers (Special) to usenofp.o(x$fpl$usenofp) for __I$use$fp
    bigflt0.o(.text) refers to btod.o(CL$$btod_emul) for _btod_emul
    bigflt0.o(.text) refers to btod.o(CL$$btod_ediv) for _btod_ediv
    bigflt0.o(.text) refers to bigflt0.o(.constdata) for .constdata
    bigflt0.o(.constdata) refers (Special) to usenofp.o(x$fpl$usenofp) for __I$use$fp
    btod.o(CL$$btod_d2e) refers (Special) to usenofp.o(x$fpl$usenofp) for __I$use$fp
    btod.o(CL$$btod_d2e) refers to btod.o(CL$$btod_d2e_norm_op1) for _d2e_norm_op1
    btod.o(CL$$btod_d2e_norm_op1) refers (Special) to usenofp.o(x$fpl$usenofp) for __I$use$fp
    btod.o(CL$$btod_d2e_norm_op1) refers to btod.o(CL$$btod_d2e_denorm_low) for _d2e_denorm_low
    btod.o(CL$$btod_d2e_denorm_low) refers (Special) to usenofp.o(x$fpl$usenofp) for __I$use$fp
    btod.o(CL$$btod_emul) refers (Special) to usenofp.o(x$fpl$usenofp) for __I$use$fp
    btod.o(CL$$btod_emul) refers to btod.o(CL$$btod_mult_common) for __btod_mult_common
    btod.o(CL$$btod_emul) refers to btod.o(CL$$btod_e2e) for _e2e
    btod.o(CL$$btod_ediv) refers (Special) to usenofp.o(x$fpl$usenofp) for __I$use$fp
    btod.o(CL$$btod_ediv) refers to btod.o(CL$$btod_div_common) for __btod_div_common
    btod.o(CL$$btod_ediv) refers to btod.o(CL$$btod_e2e) for _e2e
    btod.o(CL$$btod_emuld) refers (Special) to usenofp.o(x$fpl$usenofp) for __I$use$fp
    btod.o(CL$$btod_emuld) refers to btod.o(CL$$btod_mult_common) for __btod_mult_common
    btod.o(CL$$btod_emuld) refers to btod.o(CL$$btod_e2d) for _e2d
    btod.o(CL$$btod_edivd) refers (Special) to usenofp.o(x$fpl$usenofp) for __I$use$fp
    btod.o(CL$$btod_edivd) refers to btod.o(CL$$btod_div_common) for __btod_div_common
    btod.o(CL$$btod_edivd) refers to btod.o(CL$$btod_e2d) for _e2d
    btod.o(CL$$btod_e2e) refers (Special) to usenofp.o(x$fpl$usenofp) for __I$use$fp
    btod.o(CL$$btod_e2d) refers (Special) to usenofp.o(x$fpl$usenofp) for __I$use$fp
    btod.o(CL$$btod_e2d) refers to btod.o(CL$$btod_e2e) for _e2e
    btod.o(CL$$btod_mult_common) refers (Special) to usenofp.o(x$fpl$usenofp) for __I$use$fp
    btod.o(CL$$btod_div_common) refers (Special) to usenofp.o(x$fpl$usenofp) for __I$use$fp
    lc_numeric_c.o(locale$$data) refers (Special) to libinit2.o(.ARM.Collect$$libinit$$00000016) for __rt_lib_init_lc_numeric_2
    lc_numeric_c.o(locale$$code) refers (Special) to libinit2.o(.ARM.Collect$$libinit$$00000016) for __rt_lib_init_lc_numeric_2
    lc_numeric_c.o(locale$$code) refers to strcmp.o(.text) for strcmp
    lc_numeric_c.o(locale$$code) refers to lc_numeric_c.o(locale$$data) for __lcnum_c_name
    exit.o(.text) refers to rtexit.o(.ARM.Collect$$rtexit$$00000000) for __rt_exit
    libinit.o(.ARM.Collect$$libinit$$00000000) refers (Special) to libinit2.o(.ARM.Collect$$libinit$$0000002E) for __rt_lib_init_alloca_1
    libinit.o(.ARM.Collect$$libinit$$00000000) refers (Special) to libinit2.o(.ARM.Collect$$libinit$$0000002C) for __rt_lib_init_argv_1
    libinit.o(.ARM.Collect$$libinit$$00000000) refers (Special) to libinit2.o(.ARM.Collect$$libinit$$0000001B) for __rt_lib_init_atexit_1
    libinit.o(.ARM.Collect$$libinit$$00000000) refers (Special) to libinit2.o(.ARM.Collect$$libinit$$00000021) for __rt_lib_init_clock_1
    libinit.o(.ARM.Collect$$libinit$$00000000) refers (Special) to libinit2.o(.ARM.Collect$$libinit$$00000032) for __rt_lib_init_cpp_1
    libinit.o(.ARM.Collect$$libinit$$00000000) refers (Special) to libinit2.o(.ARM.Collect$$libinit$$00000030) for __rt_lib_init_exceptions_1
    libinit.o(.ARM.Collect$$libinit$$00000000) refers (Special) to libinit2.o(.ARM.Collect$$libinit$$00000002) for __rt_lib_init_fp_1
    libinit.o(.ARM.Collect$$libinit$$00000000) refers (Special) to libinit2.o(.ARM.Collect$$libinit$$0000001F) for __rt_lib_init_fp_trap_1
    libinit.o(.ARM.Collect$$libinit$$00000000) refers (Special) to libinit2.o(.ARM.Collect$$libinit$$00000023) for __rt_lib_init_getenv_1
    libinit.o(.ARM.Collect$$libinit$$00000000) refers (Special) to libinit2.o(.ARM.Collect$$libinit$$0000000A) for __rt_lib_init_heap_1
    libinit.o(.ARM.Collect$$libinit$$00000000) refers (Special) to libinit2.o(.ARM.Collect$$libinit$$00000011) for __rt_lib_init_lc_collate_1
    libinit.o(.ARM.Collect$$libinit$$00000000) refers (Special) to libinit2.o(.ARM.Collect$$libinit$$00000013) for __rt_lib_init_lc_ctype_1
    libinit.o(.ARM.Collect$$libinit$$00000000) refers (Special) to libinit2.o(.ARM.Collect$$libinit$$00000015) for __rt_lib_init_lc_monetary_1
    libinit.o(.ARM.Collect$$libinit$$00000000) refers (Special) to libinit2.o(.ARM.Collect$$libinit$$00000017) for __rt_lib_init_lc_numeric_1
    libinit.o(.ARM.Collect$$libinit$$00000000) refers (Special) to libinit2.o(.ARM.Collect$$libinit$$00000019) for __rt_lib_init_lc_time_1
    libinit.o(.ARM.Collect$$libinit$$00000000) refers (Special) to libinit2.o(.ARM.Collect$$libinit$$00000004) for __rt_lib_init_preinit_1
    libinit.o(.ARM.Collect$$libinit$$00000000) refers (Special) to libinit2.o(.ARM.Collect$$libinit$$0000000E) for __rt_lib_init_rand_1
    libinit.o(.ARM.Collect$$libinit$$00000000) refers (Special) to libinit2.o(.ARM.Collect$$libinit$$00000033) for __rt_lib_init_return
    libinit.o(.ARM.Collect$$libinit$$00000000) refers (Special) to libinit2.o(.ARM.Collect$$libinit$$0000001D) for __rt_lib_init_signal_1
    libinit.o(.ARM.Collect$$libinit$$00000000) refers (Special) to libinit2.o(.ARM.Collect$$libinit$$00000025) for __rt_lib_init_stdio_1
    libinit.o(.ARM.Collect$$libinit$$00000000) refers (Special) to libinit2.o(.ARM.Collect$$libinit$$0000000C) for __rt_lib_init_user_alloc_1
    istatus.o(x$fpl$ieeestatus) refers (Special) to usenofp.o(x$fpl$usenofp) for __I$use$fp
    fpclassify.o(i.__ARM_fpclassify) refers (Special) to usenofp.o(x$fpl$usenofp) for __I$use$fp
    libspace.o(.text) refers to libspace.o(.bss) for __libspace_start
    sys_stackheap.o(.text) refers (Special) to indicate_semi.o(.text) for __semihosting_library_function
    sys_stackheap.o(.text) refers to use_no_semi.o(.text) for __I$use$semihosting
    rtexit.o(.ARM.Collect$$rtexit$$00000000) refers (Special) to rtexit2.o(.ARM.Collect$$rtexit$$00000004) for __rt_exit_exit
    rtexit.o(.ARM.Collect$$rtexit$$00000000) refers (Special) to rtexit2.o(.ARM.Collect$$rtexit$$00000003) for __rt_exit_ls
    rtexit.o(.ARM.Collect$$rtexit$$00000000) refers (Special) to rtexit2.o(.ARM.Collect$$rtexit$$00000002) for __rt_exit_prels_1
    rtexit.o(.ARM.exidx) refers (Special) to rtexit2.o(.ARM.Collect$$rtexit$$00000004) for __rt_exit_exit
    rtexit.o(.ARM.exidx) refers (Special) to rtexit2.o(.ARM.Collect$$rtexit$$00000003) for __rt_exit_ls
    rtexit.o(.ARM.exidx) refers (Special) to rtexit2.o(.ARM.Collect$$rtexit$$00000002) for __rt_exit_prels_1
    rtexit.o(.ARM.exidx) refers to rtexit.o(.ARM.Collect$$rtexit$$00000000) for .ARM.Collect$$rtexit$$00000000
    lc_ctype_c.o(locale$$data) refers (Special) to libinit2.o(.ARM.Collect$$libinit$$00000012) for __rt_lib_init_lc_ctype_2
    lc_ctype_c.o(locale$$code) refers (Special) to libinit2.o(.ARM.Collect$$libinit$$00000012) for __rt_lib_init_lc_ctype_2
    lc_ctype_c.o(locale$$code) refers to strcmp.o(.text) for strcmp
    lc_ctype_c.o(locale$$code) refers to lc_ctype_c.o(locale$$data) for __lcctype_c_name
    libinit2.o(.ARM.Collect$$libinit$$00000001) refers to fpinit.o(x$fpl$fpinit) for _fp_init
    libinit2.o(.ARM.Collect$$libinit$$0000000F) refers (Weak) to rt_locale_intlibspace.o(.text) for __rt_locale
    libinit2.o(.ARM.Collect$$libinit$$00000010) refers to libinit2.o(.ARM.Collect$$libinit$$0000000F) for .ARM.Collect$$libinit$$0000000F
    libinit2.o(.ARM.Collect$$libinit$$00000012) refers to libinit2.o(.ARM.Collect$$libinit$$0000000F) for .ARM.Collect$$libinit$$0000000F
    libinit2.o(.ARM.Collect$$libinit$$00000012) refers (Weak) to lc_ctype_c.o(locale$$code) for _get_lc_ctype
    libinit2.o(.ARM.Collect$$libinit$$00000014) refers to libinit2.o(.ARM.Collect$$libinit$$0000000F) for .ARM.Collect$$libinit$$0000000F
    libinit2.o(.ARM.Collect$$libinit$$00000016) refers to libinit2.o(.ARM.Collect$$libinit$$0000000F) for .ARM.Collect$$libinit$$0000000F
    libinit2.o(.ARM.Collect$$libinit$$00000016) refers (Weak) to lc_numeric_c.o(locale$$code) for _get_lc_numeric
    libinit2.o(.ARM.Collect$$libinit$$00000018) refers to libinit2.o(.ARM.Collect$$libinit$$0000000F) for .ARM.Collect$$libinit$$0000000F
    libinit2.o(.ARM.Collect$$libinit$$00000026) refers to argv_veneer.o(.emb_text) for __ARM_argv_veneer
    libinit2.o(.ARM.Collect$$libinit$$00000027) refers to argv_veneer.o(.emb_text) for __ARM_argv_veneer
    rtexit2.o(.ARM.Collect$$rtexit$$00000003) refers to libshutdown.o(.ARM.Collect$$libshutdown$$00000000) for __rt_lib_shutdown
    rtexit2.o(.ARM.Collect$$rtexit$$00000004) refers to sys_exit.o(.text) for _sys_exit
    rtexit2.o(.ARM.exidx) refers to rtexit2.o(.ARM.Collect$$rtexit$$00000001) for .ARM.Collect$$rtexit$$00000001
    rtexit2.o(.ARM.exidx) refers to rtexit2.o(.ARM.Collect$$rtexit$$00000003) for .ARM.Collect$$rtexit$$00000003
    rtexit2.o(.ARM.exidx) refers to rtexit2.o(.ARM.Collect$$rtexit$$00000004) for .ARM.Collect$$rtexit$$00000004
    argv_veneer.o(.emb_text) refers to no_argv.o(.text) for __ARM_get_argv
    sys_exit.o(.text) refers (Special) to use_no_semi.o(.text) for __I$use$semihosting
    sys_exit.o(.text) refers (Special) to indicate_semi.o(.text) for __semihosting_library_function
    _get_argv_nomalloc.o(.text) refers (Special) to hrguard.o(.text) for __heap_region$guard
    _get_argv_nomalloc.o(.text) refers to defsig_rtmem_outer.o(.text) for __rt_SIGRTMEM
    _get_argv_nomalloc.o(.text) refers to sys_command.o(.text) for _sys_command_string
    libshutdown.o(.ARM.Collect$$libshutdown$$00000000) refers (Special) to libshutdown2.o(.ARM.Collect$$libshutdown$$00000002) for __rt_lib_shutdown_cpp_1
    libshutdown.o(.ARM.Collect$$libshutdown$$00000000) refers (Special) to libshutdown2.o(.ARM.Collect$$libshutdown$$00000007) for __rt_lib_shutdown_fp_trap_1
    libshutdown.o(.ARM.Collect$$libshutdown$$00000000) refers (Special) to libshutdown2.o(.ARM.Collect$$libshutdown$$0000000F) for __rt_lib_shutdown_heap_1
    libshutdown.o(.ARM.Collect$$libshutdown$$00000000) refers (Special) to libshutdown2.o(.ARM.Collect$$libshutdown$$00000010) for __rt_lib_shutdown_return
    libshutdown.o(.ARM.Collect$$libshutdown$$00000000) refers (Special) to libshutdown2.o(.ARM.Collect$$libshutdown$$0000000A) for __rt_lib_shutdown_signal_1
    libshutdown.o(.ARM.Collect$$libshutdown$$00000000) refers (Special) to libshutdown2.o(.ARM.Collect$$libshutdown$$00000004) for __rt_lib_shutdown_stdio_1
    libshutdown.o(.ARM.Collect$$libshutdown$$00000000) refers (Special) to libshutdown2.o(.ARM.Collect$$libshutdown$$0000000C) for __rt_lib_shutdown_user_alloc_1
    sys_command.o(.text) refers (Special) to use_no_semi.o(.text) for __I$use$semihosting
    sys_command.o(.text) refers (Special) to indicate_semi.o(.text) for __semihosting_library_function
    defsig_rtmem_outer.o(.text) refers to defsig_rtmem_inner.o(.text) for __rt_SIGRTMEM_inner
    defsig_rtmem_outer.o(.text) refers to defsig_exit.o(.text) for __sig_exit
    defsig_rtmem_formal.o(.text) refers to rt_raise.o(.text) for __rt_raise
    rt_raise.o(.text) refers to __raise.o(.text) for __raise
    rt_raise.o(.text) refers to sys_exit.o(.text) for _sys_exit
    defsig_exit.o(.text) refers to sys_exit.o(.text) for _sys_exit
    defsig_rtmem_inner.o(.text) refers to defsig_general.o(.text) for __default_signal_display
    __raise.o(.text) refers to defsig.o(CL$$defsig) for __default_signal_handler
    defsig_general.o(.text) refers to sys_wrch.o(.text) for _ttywrch
    sys_wrch.o(.text) refers (Special) to use_no_semi.o(.text) for __I$use$semihosting
    sys_wrch.o(.text) refers (Special) to indicate_semi.o(.text) for __semihosting_library_function
    defsig.o(CL$$defsig) refers to defsig_rtmem_inner.o(.text) for __rt_SIGRTMEM_inner
    defsig_abrt_inner.o(.text) refers to defsig_general.o(.text) for __default_signal_display
    defsig_fpe_inner.o(.text) refers to defsig_general.o(.text) for __default_signal_display
    defsig_rtred_inner.o(.text) refers to defsig_general.o(.text) for __default_signal_display
    defsig_stak_inner.o(.text) refers to defsig_general.o(.text) for __default_signal_display
    defsig_pvfn_inner.o(.text) refers to defsig_general.o(.text) for __default_signal_display
    defsig_cppl_inner.o(.text) refers to defsig_general.o(.text) for __default_signal_display
    defsig_segv_inner.o(.text) refers to defsig_general.o(.text) for __default_signal_display
    defsig_other.o(.text) refers to defsig_general.o(.text) for __default_signal_display


==============================================================================

Removing Unused input sections from the image.

    Removing app_ancsc.o(.constdata), (48 bytes).
    Removing app_ancsc.o(.constdata), (8 bytes).
    Removing flash.o(.bss), (12 bytes).
    Removing adc.o(.text), (424 bytes).
    Removing adc.o(.data), (8 bytes).
    Removing uart.o(.bss), (128 bytes).
    Removing uart.o(.constdata), (9 bytes).
    Removing i2c.o(.text), (1616 bytes).
    Removing i2c.o(.data), (4 bytes).
    Removing main.o(i.__ARM_common_enable_irq), (16 bytes).
    Removing main.o(i.__ARM_common_enable_fiq), (16 bytes).
    Removing main.o(i.__ARM_common_disable_irq), (20 bytes).
    Removing main.o(i.__ARM_common_disable_fiq), (20 bytes).
    Removing app.o(i.__ARM_common_switch8), (24 bytes).

14 unused section(s) (total 2353 bytes) removed from the image.

==============================================================================

Adding Veneers to the image

    Adding AT veneer (8 bytes, Long) for call to 'Undefined_Exception' from boot_vectors.o(SYS_BOOT).
    Adding AT veneer (8 bytes, Long) for call to 'SoftwareInterrupt_Exception' from boot_vectors.o(SYS_BOOT).
    Adding AT veneer (8 bytes, Long) for call to 'PrefetchAbort_Exception' from boot_vectors.o(SYS_BOOT).
    Adding AT veneer (8 bytes, Long) for call to 'DataAbort_Exception' from boot_vectors.o(SYS_BOOT).
    Adding AT veneer (8 bytes, Long) for call to 'Reserved_Exception' from boot_vectors.o(SYS_BOOT).
    Adding AT veneer (8 bytes, Inline) for call to 'main' from boot_handlers.o(SYS_BOOT).
    Adding AT veneer (8 bytes, Inline) for call to '_printf_int_dec' from _printf_i.o(.ARM.Collect$$_printf_percent$$00000008).
    Adding AT veneer (8 bytes, Inline) for call to '_printf_charcount' from _printf_n.o(.ARM.Collect$$_printf_percent$$00000001).
    Adding AT veneer (8 bytes, Inline) for call to '_printf_longlong_dec' from _printf_lli.o(.ARM.Collect$$_printf_percent$$0000000D).
    Adding AT veneer (8 bytes, Inline) for call to '_printf_int_oct' from _printf_o.o(.ARM.Collect$$_printf_percent$$0000000B).
    Adding AT veneer (8 bytes, Inline) for call to '_printf_hex_ptr' from _printf_p.o(.ARM.Collect$$_printf_percent$$00000002).
    Adding AT veneer (8 bytes, Inline) for call to '_printf_fp_hex_real' from printf2.o(x$fpl$printf2).
    Adding AT veneer (8 bytes, Inline) for call to '_printf_char' from _printf_c.o(.ARM.Collect$$_printf_percent$$00000013).
    Adding AT veneer (8 bytes, Inline) for call to '_printf_wchar' from _printf_lc.o(.ARM.Collect$$_printf_percent$$00000015).
    Adding AT veneer (8 bytes, Long) for call to '_printf_int_hex' from _printf_x.o(.ARM.Collect$$_printf_percent$$0000000C).
    Adding AT veneer (8 bytes, Long) for call to '_printf_ll_oct' from _printf_llo.o(.ARM.Collect$$_printf_percent$$00000010).
    Adding AT veneer (8 bytes, Long) for call to '_printf_ll_hex' from _printf_llx.o(.ARM.Collect$$_printf_percent$$00000011).
    Adding AT veneer (8 bytes, Long) for call to '_printf_string' from _printf_s.o(.ARM.Collect$$_printf_percent$$00000014).
    Adding AT veneer (8 bytes, Long) for call to '_printf_wstring' from _printf_ls.o(.ARM.Collect$$_printf_percent$$00000016).
    Adding AT veneer (8 bytes, Long) for call to '_printf_fp_dec_real' from printf1.o(x$fpl$printf1).

20 Veneer(s) (total 160 bytes) added to the image.

==============================================================================

Image Symbol Table

    Local Symbols

    Symbol Name                              Value     Ov Type        Size  Object(Section)

    ../clib/angel/boardlib.s                 0x00000000   Number         0  boardinit2.o ABSOLUTE
    ../clib/angel/boardlib.s                 0x00000000   Number         0  boardinit1.o ABSOLUTE
    ../clib/angel/boardlib.s                 0x00000000   Number         0  boardshut.o ABSOLUTE
    ../clib/angel/boardlib.s                 0x00000000   Number         0  boardinit3.o ABSOLUTE
    ../clib/angel/handlers.s                 0x00000000   Number         0  __scatter_zi.o ABSOLUTE
    ../clib/angel/handlers.s                 0x00000000   Number         0  __scatter_copy.o ABSOLUTE
    ../clib/angel/kernel.s                   0x00000000   Number         0  __rtentry5.o ABSOLUTE
    ../clib/angel/kernel.s                   0x00000000   Number         0  rtexit.o ABSOLUTE
    ../clib/angel/kernel.s                   0x00000000   Number         0  __rtentry2.o ABSOLUTE
    ../clib/angel/kernel.s                   0x00000000   Number         0  __rtentry4.o ABSOLUTE
    ../clib/angel/kernel.s                   0x00000000   Number         0  __rtentry.o ABSOLUTE
    ../clib/angel/kernel.s                   0x00000000   Number         0  rtexit2.o ABSOLUTE
    ../clib/angel/rt.s                       0x00000000   Number         0  rt_raise.o ABSOLUTE
    ../clib/angel/rt.s                       0x00000000   Number         0  rt_ctype_table.o ABSOLUTE
    ../clib/angel/rt.s                       0x00000000   Number         0  rt_locale.o ABSOLUTE
    ../clib/angel/rt.s                       0x00000000   Number         0  rt_locale_intlibspace.o ABSOLUTE
    ../clib/angel/scatter.s                  0x00000000   Number         0  __scatter.o ABSOLUTE
    ../clib/angel/startup.s                  0x00000000   Number         0  __main.o ABSOLUTE
    ../clib/angel/sys.s                      0x00000000   Number         0  use_no_semi.o ABSOLUTE
    ../clib/angel/sys.s                      0x00000000   Number         0  libspace.o ABSOLUTE
    ../clib/angel/sys.s                      0x00000000   Number         0  indicate_semi.o ABSOLUTE
    ../clib/angel/sys.s                      0x00000000   Number         0  sys_stackheap.o ABSOLUTE
    ../clib/angel/sys.s                      0x00000000   Number         0  sys_stackheap_outer.o ABSOLUTE
    ../clib/angel/sysapp.c                   0x00000000   Number         0  sys_wrch.o ABSOLUTE
    ../clib/angel/sysapp.c                   0x00000000   Number         0  sys_command.o ABSOLUTE
    ../clib/angel/sysapp.c                   0x00000000   Number         0  sys_exit.o ABSOLUTE
    ../clib/armsys.c                         0x00000000   Number         0  no_argv.o ABSOLUTE
    ../clib/armsys.c                         0x00000000   Number         0  _get_argv_nomalloc.o ABSOLUTE
    ../clib/armsys.c                         0x00000000   Number         0  argv_veneer.o ABSOLUTE
    ../clib/armsys.c                         0x00000000   Number         0  argv_veneer.o ABSOLUTE
    ../clib/bigflt.c                         0x00000000   Number         0  bigflt0.o ABSOLUTE
    ../clib/btod.s                           0x00000000   Number         0  btod.o ABSOLUTE
    ../clib/division.s                       0x00000000   Number         0  rtudiv10.o ABSOLUTE
    ../clib/heapalloc.c                      0x00000000   Number         0  hrguard.o ABSOLUTE
    ../clib/libinit.s                        0x00000000   Number         0  libinit.o ABSOLUTE
    ../clib/libinit.s                        0x00000000   Number         0  libinit2.o ABSOLUTE
    ../clib/libinit.s                        0x00000000   Number         0  libshutdown2.o ABSOLUTE
    ../clib/libinit.s                        0x00000000   Number         0  libshutdown.o ABSOLUTE
    ../clib/locale.c                         0x00000000   Number         0  _wcrtomb.o ABSOLUTE
    ../clib/locale.s                         0x00000000   Number         0  lc_ctype_c.o ABSOLUTE
    ../clib/locale.s                         0x00000000   Number         0  lc_numeric_c.o ABSOLUTE
    ../clib/longlong.s                       0x00000000   Number         0  lludiv10.o ABSOLUTE
    ../clib/memcpset.s                       0x00000000   Number         0  strcmp.o ABSOLUTE
    ../clib/misc.s                           0x00000000   Number         0  printf_stubs.o ABSOLUTE
    ../clib/printf.c                         0x00000000   Number         0  _printf_oct_int_ll.o ABSOLUTE
    ../clib/printf.c                         0x00000000   Number         0  _printf_hex_int_ll.o ABSOLUTE
    ../clib/printf.c                         0x00000000   Number         0  _sputc.o ABSOLUTE
    ../clib/printf.c                         0x00000000   Number         0  _printf_oct_ll.o ABSOLUTE
    ../clib/printf.c                         0x00000000   Number         0  _printf_longlong_dec.o ABSOLUTE
    ../clib/printf.c                         0x00000000   Number         0  _printf_wctomb.o ABSOLUTE
    ../clib/printf.c                         0x00000000   Number         0  _printf_oct_int.o ABSOLUTE
    ../clib/printf.c                         0x00000000   Number         0  _printf_fp_infnan.o ABSOLUTE
    ../clib/printf.c                         0x00000000   Number         0  _printf_wchar.o ABSOLUTE
    ../clib/printf.c                         0x00000000   Number         0  _printf_char.o ABSOLUTE
    ../clib/printf.c                         0x00000000   Number         0  _printf_fp_hex.o ABSOLUTE
    ../clib/printf.c                         0x00000000   Number         0  _printf_fp_dec.o ABSOLUTE
    ../clib/printf.c                         0x00000000   Number         0  _printf_intcommon.o ABSOLUTE
    ../clib/printf.c                         0x00000000   Number         0  __printf_flags_ss_wp.o ABSOLUTE
    ../clib/printf.c                         0x00000000   Number         0  __printf_ss_wp.o ABSOLUTE
    ../clib/printf.c                         0x00000000   Number         0  __printf_flags_wp.o ABSOLUTE
    ../clib/printf.c                         0x00000000   Number         0  __printf_wp.o ABSOLUTE
    ../clib/printf.c                         0x00000000   Number         0  __printf_nopercent.o ABSOLUTE
    ../clib/printf.c                         0x00000000   Number         0  __printf_flags_ss.o ABSOLUTE
    ../clib/printf.c                         0x00000000   Number         0  __printf_ss.o ABSOLUTE
    ../clib/printf.c                         0x00000000   Number         0  __printf_flags.o ABSOLUTE
    ../clib/printf.c                         0x00000000   Number         0  _printf_hex_int_ll_ptr.o ABSOLUTE
    ../clib/printf.c                         0x00000000   Number         0  _printf_hex_ll_ptr.o ABSOLUTE
    ../clib/printf.c                         0x00000000   Number         0  _printf_hex_int_ptr.o ABSOLUTE
    ../clib/printf.c                         0x00000000   Number         0  _printf_hex_ptr.o ABSOLUTE
    ../clib/printf.c                         0x00000000   Number         0  vsprintf.o ABSOLUTE
    ../clib/printf.c                         0x00000000   Number         0  _printf_hex_int.o ABSOLUTE
    ../clib/printf.c                         0x00000000   Number         0  __printf.o ABSOLUTE
    ../clib/printf.c                         0x00000000   Number         0  _printf_hex_ll.o ABSOLUTE
    ../clib/printf.c                         0x00000000   Number         0  _printf_pad.o ABSOLUTE
    ../clib/printf.c                         0x00000000   Number         0  _printf_truncate.o ABSOLUTE
    ../clib/printf.c                         0x00000000   Number         0  _printf_str.o ABSOLUTE
    ../clib/printf.c                         0x00000000   Number         0  _printf_dec.o ABSOLUTE
    ../clib/printf.c                         0x00000000   Number         0  _printf_charcount.o ABSOLUTE
    ../clib/printf.c                         0x00000000   Number         0  _printf_char_common.o ABSOLUTE
    ../clib/printf_percent.s                 0x00000000   Number         0  _printf_a.o ABSOLUTE
    ../clib/printf_percent.s                 0x00000000   Number         0  _printf_d.o ABSOLUTE
    ../clib/printf_percent.s                 0x00000000   Number         0  _printf_u.o ABSOLUTE
    ../clib/printf_percent.s                 0x00000000   Number         0  _printf_x.o ABSOLUTE
    ../clib/printf_percent.s                 0x00000000   Number         0  _printf_i.o ABSOLUTE
    ../clib/printf_percent.s                 0x00000000   Number         0  _printf_g.o ABSOLUTE
    ../clib/printf_percent.s                 0x00000000   Number         0  _printf_c.o ABSOLUTE
    ../clib/printf_percent.s                 0x00000000   Number         0  _printf_n.o ABSOLUTE
    ../clib/printf_percent.s                 0x00000000   Number         0  _printf_f.o ABSOLUTE
    ../clib/printf_percent.s                 0x00000000   Number         0  _printf_l.o ABSOLUTE
    ../clib/printf_percent.s                 0x00000000   Number         0  _printf_p.o ABSOLUTE
    ../clib/printf_percent.s                 0x00000000   Number         0  _printf_llu.o ABSOLUTE
    ../clib/printf_percent.s                 0x00000000   Number         0  _printf_s.o ABSOLUTE
    ../clib/printf_percent.s                 0x00000000   Number         0  _printf_percent_end.o ABSOLUTE
    ../clib/printf_percent.s                 0x00000000   Number         0  _printf_e.o ABSOLUTE
    ../clib/printf_percent.s                 0x00000000   Number         0  _printf_o.o ABSOLUTE
    ../clib/printf_percent.s                 0x00000000   Number         0  _printf_percent.o ABSOLUTE
    ../clib/printf_percent.s                 0x00000000   Number         0  _printf_llx.o ABSOLUTE
    ../clib/printf_percent.s                 0x00000000   Number         0  _printf_lli.o ABSOLUTE
    ../clib/printf_percent.s                 0x00000000   Number         0  _printf_llo.o ABSOLUTE
    ../clib/printf_percent.s                 0x00000000   Number         0  _printf_lld.o ABSOLUTE
    ../clib/printf_percent.s                 0x00000000   Number         0  _printf_ls.o ABSOLUTE
    ../clib/printf_percent.s                 0x00000000   Number         0  _printf_lc.o ABSOLUTE
    ../clib/printf_percent.s                 0x00000000   Number         0  _printf_ll.o ABSOLUTE
    ../clib/signal.c                         0x00000000   Number         0  defsig_rtred_inner.o ABSOLUTE
    ../clib/signal.c                         0x00000000   Number         0  defsig_fpe_inner.o ABSOLUTE
    ../clib/signal.c                         0x00000000   Number         0  defsig_abrt_inner.o ABSOLUTE
    ../clib/signal.c                         0x00000000   Number         0  defsig_stak_inner.o ABSOLUTE
    ../clib/signal.c                         0x00000000   Number         0  __raise.o ABSOLUTE
    ../clib/signal.c                         0x00000000   Number         0  defsig_general.o ABSOLUTE
    ../clib/signal.c                         0x00000000   Number         0  defsig_rtmem_outer.o ABSOLUTE
    ../clib/signal.c                         0x00000000   Number         0  defsig_rtmem_formal.o ABSOLUTE
    ../clib/signal.c                         0x00000000   Number         0  defsig_exit.o ABSOLUTE
    ../clib/signal.c                         0x00000000   Number         0  defsig_pvfn_inner.o ABSOLUTE
    ../clib/signal.c                         0x00000000   Number         0  defsig_cppl_inner.o ABSOLUTE
    ../clib/signal.c                         0x00000000   Number         0  defsig_segv_inner.o ABSOLUTE
    ../clib/signal.c                         0x00000000   Number         0  defsig_other.o ABSOLUTE
    ../clib/signal.c                         0x00000000   Number         0  defsig_rtmem_inner.o ABSOLUTE
    ../clib/signal.s                         0x00000000   Number         0  defsig.o ABSOLUTE
    ../clib/stdlib.c                         0x00000000   Number         0  exit.o ABSOLUTE
    ../fplib/dflt.s                          0x00000000   Number         0  dflt_clz.o ABSOLUTE
    ../fplib/dmul.s                          0x00000000   Number         0  dmul.o ABSOLUTE
    ../fplib/dnaninf.s                       0x00000000   Number         0  dnaninf.o ABSOLUTE
    ../fplib/dretinf.s                       0x00000000   Number         0  dretinf.o ABSOLUTE
    ../fplib/fpinit.s                        0x00000000   Number         0  fpinit.o ABSOLUTE
    ../fplib/istatus.s                       0x00000000   Number         0  istatus.o ABSOLUTE
    ../fplib/printf1.s                       0x00000000   Number         0  printf1.o ABSOLUTE
    ../fplib/printf2.s                       0x00000000   Number         0  printf2.o ABSOLUTE
    ../fplib/printf2a.s                      0x00000000   Number         0  printf2a.o ABSOLUTE
    ../fplib/printf2b.s                      0x00000000   Number         0  printf2b.o ABSOLUTE
    ../fplib/usenofp.s                       0x00000000   Number         0  usenofp.o ABSOLUTE
    ../mathlib/fpclassify.c                  0x00000000   Number         0  fpclassify.o ABSOLUTE
    ..\..\Src\driver\adc\adc.c               0x00000000   Number         0  adc.o ABSOLUTE
    ..\..\Src\driver\flash\flash.c           0x00000000   Number         0  flash.o ABSOLUTE
    ..\..\Src\driver\gpio\gpio.c             0x00000000   Number         0  gpio.o ABSOLUTE
    ..\..\Src\driver\icu\icu.c               0x00000000   Number         0  icu.o ABSOLUTE
    ..\..\Src\driver\rf\rf_xvr.c             0x00000000   Number         0  rf_xvr.o ABSOLUTE
    ..\..\Src\driver\spi\spi.c               0x00000000   Number         0  spi.o ABSOLUTE
    ..\..\Src\driver\uart2\uart2.c           0x00000000   Number         0  uart2.o ABSOLUTE
    ..\..\Src\driver\wdt\wdt.c               0x00000000   Number         0  wdt.o ABSOLUTE
    ..\..\Src\plf\nvds\src\nvds.c            0x00000000   Number         0  nvds.o ABSOLUTE
    ..\..\Src\plf\rwip\src\rwble.c           0x00000000   Number         0  rwble.o ABSOLUTE
    ..\..\Src\plf\rwip\src\rwbt.c            0x00000000   Number         0  rwbt.o ABSOLUTE
    ..\..\Src\plf\rwip\src\rwip.c            0x00000000   Number         0  rwip.o ABSOLUTE
    ..\..\Src\profiles\ancs\ancsc\src\ancsc.c 0x00000000   Number         0  ancsc.o ABSOLUTE
    ..\..\Src\profiles\ancs\ancsc\src\ancsc_task.c 0x00000000   Number         0  ancsc_task.o ABSOLUTE
    ..\..\Src\profiles\bas\bass\src\bass.c   0x00000000   Number         0  bass.o ABSOLUTE
    ..\..\Src\profiles\bas\bass\src\bass_task.c 0x00000000   Number         0  bass_task.o ABSOLUTE
    ..\..\Src\profiles\dis\diss\src\diss.c   0x00000000   Number         0  diss.o ABSOLUTE
    ..\..\Src\profiles\dis\diss\src\diss_task.c 0x00000000   Number         0  diss_task.o ABSOLUTE
    ..\..\Src\profiles\oad\src\oads.c        0x00000000   Number         0  oads.o ABSOLUTE
    ..\..\Src\profiles\oad\src\oads_task.c   0x00000000   Number         0  oads_task.o ABSOLUTE
    ..\..\src\device\lcd\lcd360.c            0x00000000   Number         0  lcd360.o ABSOLUTE
    ..\..\src\device\spi_flash\w25x40c.c     0x00000000   Number         0  w25x40c.o ABSOLUTE
    ..\..\src\driver\aon_rtc\aon_rtc.c       0x00000000   Number         0  aon_rtc.o ABSOLUTE
    ..\..\src\driver\dma\dma.c               0x00000000   Number         0  dma.o ABSOLUTE
    ..\..\src\driver\i2c\i2c.c               0x00000000   Number         0  i2c.o ABSOLUTE
    ..\..\src\driver\intc\intc.c             0x00000000   Number         0  intc.o ABSOLUTE
    ..\..\src\driver\uart\uart.c             0x00000000   Number         0  uart.o ABSOLUTE
    ..\..\src\plf\prf\prf.c                  0x00000000   Number         0  prf.o ABSOLUTE
    ..\..\src\plf\prf\prf_utils.c            0x00000000   Number         0  prf_utils.o ABSOLUTE
    ..\..\src\system\boot_handlers.s         0x00000000   Number         0  boot_handlers.o ABSOLUTE
    ..\..\src\system\boot_vectors.s          0x00000000   Number         0  boot_vectors.o ABSOLUTE
    app\src\app.c                            0x00000000   Number         0  app.o ABSOLUTE
    app\src\app_ancsc.c                      0x00000000   Number         0  app_ancsc.o ABSOLUTE
    app\src\app_batt.c                       0x00000000   Number         0  app_batt.o ABSOLUTE
    app\src\app_dis.c                        0x00000000   Number         0  app_dis.o ABSOLUTE
    app\src\app_oads.c                       0x00000000   Number         0  app_oads.o ABSOLUTE
    app\src\app_sec.c                        0x00000000   Number         0  app_sec.o ABSOLUTE
    app\src\app_task.c                       0x00000000   Number         0  app_task.o ABSOLUTE
    app\src\main.c                           0x00000000   Number         0  main.o ABSOLUTE
    dc.s                                     0x00000000   Number         0  dc.o ABSOLUTE
    work\f000\app_f000.c                     0x00000000   Number         0  app_f000.o ABSOLUTE
    work\f000\f000s.c                        0x00000000   Number         0  f000s.o ABSOLUTE
    work\f000\f000s_task.c                   0x00000000   Number         0  f000s_task.o ABSOLUTE
    SYS_BOOT                                 0x00025b00   Section       92  boot_vectors.o(SYS_BOOT)
    Undefined                                0x00025b40   ARM Code       0  boot_vectors.o(SYS_BOOT)
    SoftwareInterrupt                        0x00025b44   ARM Code       0  boot_vectors.o(SYS_BOOT)
    PrefetchAbort                            0x00025b48   ARM Code       0  boot_vectors.o(SYS_BOOT)
    DataAbort                                0x00025b4c   ARM Code       0  boot_vectors.o(SYS_BOOT)
    IRQ_Handler                              0x00025b50   ARM Code       0  boot_vectors.o(SYS_BOOT)
    sys_reserved                             0x00025b54   ARM Code       0  boot_vectors.o(SYS_BOOT)
    FIQ_Handler                              0x00025b58   ARM Code       0  boot_vectors.o(SYS_BOOT)
    SYS_BOOT                                 0x00025b5c   Section      500  boot_handlers.o(SYS_BOOT)
    sys_fiq_entry                            0x00025e00   Section        0  intc.o(sys_fiq_entry)
    sys_irq_entry                            0x00025e20   Section        0  intc.o(sys_irq_entry)
    !!!main                                  0x00025e30   Section        8  __main.o(!!!main)
    !!!scatter                               0x00025e38   Section       60  __scatter.o(!!!scatter)
    !!handler_copy                           0x00025e74   Section       40  __scatter_copy.o(!!handler_copy)
    !!handler_zi                             0x00025e9c   Section       44  __scatter_zi.o(!!handler_zi)
    .ARM.Collect$$_printf_percent$$00000000  0x00025ec8   Section        0  _printf_percent.o(.ARM.Collect$$_printf_percent$$00000000)
    .ARM.Collect$$_printf_percent$$00000001  0x00025ec8   Section        8  _printf_n.o(.ARM.Collect$$_printf_percent$$00000001)
    .ARM.Collect$$_printf_percent$$00000002  0x00025ed0   Section        8  _printf_p.o(.ARM.Collect$$_printf_percent$$00000002)
    .ARM.Collect$$_printf_percent$$00000003  0x00025ed8   Section        8  _printf_f.o(.ARM.Collect$$_printf_percent$$00000003)
    .ARM.Collect$$_printf_percent$$00000004  0x00025ee0   Section        8  _printf_e.o(.ARM.Collect$$_printf_percent$$00000004)
    .ARM.Collect$$_printf_percent$$00000005  0x00025ee8   Section        8  _printf_g.o(.ARM.Collect$$_printf_percent$$00000005)
    .ARM.Collect$$_printf_percent$$00000006  0x00025ef0   Section        8  _printf_a.o(.ARM.Collect$$_printf_percent$$00000006)
    .ARM.Collect$$_printf_percent$$00000007  0x00025ef8   Section       12  _printf_ll.o(.ARM.Collect$$_printf_percent$$00000007)
    .ARM.Collect$$_printf_percent$$00000008  0x00025f04   Section        8  _printf_i.o(.ARM.Collect$$_printf_percent$$00000008)
    .ARM.Collect$$_printf_percent$$00000009  0x00025f0c   Section        8  _printf_d.o(.ARM.Collect$$_printf_percent$$00000009)
    .ARM.Collect$$_printf_percent$$0000000A  0x00025f14   Section        8  _printf_u.o(.ARM.Collect$$_printf_percent$$0000000A)
    .ARM.Collect$$_printf_percent$$0000000B  0x00025f1c   Section        8  _printf_o.o(.ARM.Collect$$_printf_percent$$0000000B)
    .ARM.Collect$$_printf_percent$$0000000C  0x00025f24   Section        8  _printf_x.o(.ARM.Collect$$_printf_percent$$0000000C)
    .ARM.Collect$$_printf_percent$$0000000D  0x00025f2c   Section        8  _printf_lli.o(.ARM.Collect$$_printf_percent$$0000000D)
    .ARM.Collect$$_printf_percent$$0000000E  0x00025f34   Section        8  _printf_lld.o(.ARM.Collect$$_printf_percent$$0000000E)
    .ARM.Collect$$_printf_percent$$0000000F  0x00025f3c   Section        8  _printf_llu.o(.ARM.Collect$$_printf_percent$$0000000F)
    .ARM.Collect$$_printf_percent$$00000010  0x00025f44   Section        8  _printf_llo.o(.ARM.Collect$$_printf_percent$$00000010)
    .ARM.Collect$$_printf_percent$$00000011  0x00025f4c   Section        8  _printf_llx.o(.ARM.Collect$$_printf_percent$$00000011)
    .ARM.Collect$$_printf_percent$$00000012  0x00025f54   Section       12  _printf_l.o(.ARM.Collect$$_printf_percent$$00000012)
    .ARM.Collect$$_printf_percent$$00000013  0x00025f60   Section        8  _printf_c.o(.ARM.Collect$$_printf_percent$$00000013)
    .ARM.Collect$$_printf_percent$$00000014  0x00025f68   Section        8  _printf_s.o(.ARM.Collect$$_printf_percent$$00000014)
    .ARM.Collect$$_printf_percent$$00000015  0x00025f70   Section        8  _printf_lc.o(.ARM.Collect$$_printf_percent$$00000015)
    .ARM.Collect$$_printf_percent$$00000016  0x00025f78   Section        8  _printf_ls.o(.ARM.Collect$$_printf_percent$$00000016)
    .ARM.Collect$$_printf_percent$$00000017  0x00025f80   Section        8  _printf_percent_end.o(.ARM.Collect$$_printf_percent$$00000017)
    .ARM.Collect$$libinit$$00000000          0x00025f88   Section        2  libinit.o(.ARM.Collect$$libinit$$00000000)
    .ARM.Collect$$libinit$$00000002          0x00025f8a   Section        0  libinit2.o(.ARM.Collect$$libinit$$00000002)
    .ARM.Collect$$libinit$$00000004          0x00025f8a   Section        0  libinit2.o(.ARM.Collect$$libinit$$00000004)
    .ARM.Collect$$libinit$$0000000A          0x00025f8a   Section        0  libinit2.o(.ARM.Collect$$libinit$$0000000A)
    .ARM.Collect$$libinit$$0000000C          0x00025f8a   Section        0  libinit2.o(.ARM.Collect$$libinit$$0000000C)
    .ARM.Collect$$libinit$$0000000E          0x00025f8a   Section        0  libinit2.o(.ARM.Collect$$libinit$$0000000E)
    .ARM.Collect$$libinit$$0000000F          0x00025f8a   Section        6  libinit2.o(.ARM.Collect$$libinit$$0000000F)
    .ARM.Collect$$libinit$$00000011          0x00025f90   Section        0  libinit2.o(.ARM.Collect$$libinit$$00000011)
    .ARM.Collect$$libinit$$00000012          0x00025f90   Section       12  libinit2.o(.ARM.Collect$$libinit$$00000012)
    .ARM.Collect$$libinit$$00000013          0x00025f9c   Section        0  libinit2.o(.ARM.Collect$$libinit$$00000013)
    .ARM.Collect$$libinit$$00000015          0x00025f9c   Section        0  libinit2.o(.ARM.Collect$$libinit$$00000015)
    .ARM.Collect$$libinit$$00000016          0x00025f9c   Section       10  libinit2.o(.ARM.Collect$$libinit$$00000016)
    .ARM.Collect$$libinit$$00000017          0x00025fa6   Section        0  libinit2.o(.ARM.Collect$$libinit$$00000017)
    .ARM.Collect$$libinit$$00000019          0x00025fa6   Section        0  libinit2.o(.ARM.Collect$$libinit$$00000019)
    .ARM.Collect$$libinit$$0000001B          0x00025fa6   Section        0  libinit2.o(.ARM.Collect$$libinit$$0000001B)
    .ARM.Collect$$libinit$$0000001D          0x00025fa6   Section        0  libinit2.o(.ARM.Collect$$libinit$$0000001D)
    .ARM.Collect$$libinit$$0000001F          0x00025fa6   Section        0  libinit2.o(.ARM.Collect$$libinit$$0000001F)
    .ARM.Collect$$libinit$$00000021          0x00025fa6   Section        0  libinit2.o(.ARM.Collect$$libinit$$00000021)
    .ARM.Collect$$libinit$$00000023          0x00025fa6   Section        0  libinit2.o(.ARM.Collect$$libinit$$00000023)
    .ARM.Collect$$libinit$$00000025          0x00025fa6   Section        0  libinit2.o(.ARM.Collect$$libinit$$00000025)
    .ARM.Collect$$libinit$$0000002C          0x00025fa6   Section        0  libinit2.o(.ARM.Collect$$libinit$$0000002C)
    .ARM.Collect$$libinit$$0000002E          0x00025fa6   Section        0  libinit2.o(.ARM.Collect$$libinit$$0000002E)
    .ARM.Collect$$libinit$$00000030          0x00025fa6   Section        0  libinit2.o(.ARM.Collect$$libinit$$00000030)
    .ARM.Collect$$libinit$$00000032          0x00025fa6   Section        0  libinit2.o(.ARM.Collect$$libinit$$00000032)
    .ARM.Collect$$libinit$$00000033          0x00025fa6   Section        2  libinit2.o(.ARM.Collect$$libinit$$00000033)
    .ARM.Collect$$libshutdown$$00000000      0x00025fa8   Section        2  libshutdown.o(.ARM.Collect$$libshutdown$$00000000)
    .ARM.Collect$$libshutdown$$00000002      0x00025faa   Section        0  libshutdown2.o(.ARM.Collect$$libshutdown$$00000002)
    .ARM.Collect$$libshutdown$$00000004      0x00025faa   Section        0  libshutdown2.o(.ARM.Collect$$libshutdown$$00000004)
    .ARM.Collect$$libshutdown$$00000007      0x00025faa   Section        0  libshutdown2.o(.ARM.Collect$$libshutdown$$00000007)
    .ARM.Collect$$libshutdown$$0000000A      0x00025faa   Section        0  libshutdown2.o(.ARM.Collect$$libshutdown$$0000000A)
    .ARM.Collect$$libshutdown$$0000000C      0x00025faa   Section        0  libshutdown2.o(.ARM.Collect$$libshutdown$$0000000C)
    .ARM.Collect$$libshutdown$$0000000F      0x00025faa   Section        0  libshutdown2.o(.ARM.Collect$$libshutdown$$0000000F)
    .ARM.Collect$$libshutdown$$00000010      0x00025faa   Section        2  libshutdown2.o(.ARM.Collect$$libshutdown$$00000010)
    .ARM.Collect$$rtentry$$00000000          0x00025fac   Section        0  __rtentry.o(.ARM.Collect$$rtentry$$00000000)
    .ARM.Collect$$rtentry$$00000002          0x00025fac   Section        0  __rtentry2.o(.ARM.Collect$$rtentry$$00000002)
    .ARM.Collect$$rtentry$$00000005          0x00025fac   Section        4  __rtentry5.o(.ARM.Collect$$rtentry$$00000005)
    .ARM.Collect$$rtentry$$00000009          0x00025fb0   Section        0  __rtentry2.o(.ARM.Collect$$rtentry$$00000009)
    .ARM.Collect$$rtentry$$0000000A          0x00025fb0   Section        4  __rtentry2.o(.ARM.Collect$$rtentry$$0000000A)
    .ARM.Collect$$rtentry$$0000000C          0x00025fb4   Section        0  __rtentry2.o(.ARM.Collect$$rtentry$$0000000C)
    .ARM.Collect$$rtentry$$0000000D          0x00025fb4   Section       40  __rtentry2.o(.ARM.Collect$$rtentry$$0000000D)
    .ARM.Collect$$rtentry$$00002716          0x00025fdc   Section        4  __rtentry5.o(.ARM.Collect$$rtentry$$00002716)
    __lit__00000000                          0x00025fdc   Data           4  __rtentry5.o(.ARM.Collect$$rtentry$$00002716)
    .ARM.Collect$$rtexit$$00000000           0x00025fe0   Section        4  rtexit.o(.ARM.Collect$$rtexit$$00000000)
    .ARM.Collect$$rtexit$$00000002           0x00025fe4   Section        0  rtexit2.o(.ARM.Collect$$rtexit$$00000002)
    .ARM.Collect$$rtexit$$00000003           0x00025fe4   Section        4  rtexit2.o(.ARM.Collect$$rtexit$$00000003)
    .ARM.Collect$$rtexit$$00000004           0x00025fe8   Section        8  rtexit2.o(.ARM.Collect$$rtexit$$00000004)
    .text                                    0x00025ff8   Section        0  main.o(.text)
    stack_integrity_check                    0x0002615f   Thumb Code    84  main.o(.text)
    rom_env_init                             0x000261b3   Thumb Code    54  main.o(.text)
    .text                                    0x00026330   Section        0  app.o(.text)
    appm_set_adv_data                        0x00026551   Thumb Code    98  app.o(.text)
    .text                                    0x00026610   Section        0  app_batt.o(.text)
    bass_batt_level_ntf_cfg_ind_handler      0x00026697   Thumb Code     4  app_batt.o(.text)
    batt_level_upd_handler                   0x0002669b   Thumb Code     4  app_batt.o(.text)
    bass_enable_rsp_handler                  0x0002669f   Thumb Code     4  app_batt.o(.text)
    app_batt_msg_dflt_handler                0x000266a3   Thumb Code     4  app_batt.o(.text)
    .text                                    0x000266b4   Section        0  app_dis.o(.text)
    diss_value_req_ind_handler               0x000266b5   Thumb Code   124  app_dis.o(.text)
    .text                                    0x000267c8   Section        0  app_oads.o(.text)
    oads_enable_rsp_handler                  0x00026839   Thumb Code     4  app_oads.o(.text)
    app_oads_msg_dflt_handler                0x0002683d   Thumb Code    32  app_oads.o(.text)
    app_ffc1_writer_req_handler              0x0002685d   Thumb Code    28  app_oads.o(.text)
    app_ffc2_writer_req_handler              0x00026879   Thumb Code    16  app_oads.o(.text)
    oads_ffc1_upd_rsp_handler                0x000268e3   Thumb Code    16  app_oads.o(.text)
    oads_ffc2_upd_rsp_handler                0x000268f3   Thumb Code    16  app_oads.o(.text)
    .text                                    0x00026980   Section        0  app_sec.o(.text)
    gapc_bond_req_ind_handler                0x00026a17   Thumb Code   216  app_sec.o(.text)
    gapc_bond_ind_handler                    0x00026aef   Thumb Code   184  app_sec.o(.text)
    gapc_encrypt_req_ind_handler             0x00026ba7   Thumb Code   120  app_sec.o(.text)
    gapc_encrypt_ind_handler                 0x00026c1f   Thumb Code    14  app_sec.o(.text)
    app_sec_msg_dflt_handler                 0x00026c2d   Thumb Code     4  app_sec.o(.text)
    .text                                    0x00026d14   Section        0  app_task.o(.text)
    app_get_handler                          0x00026d15   Thumb Code    68  app_task.o(.text)
    gapm_activity_created_ind_handler        0x00026d59   Thumb Code    16  app_task.o(.text)
    gapm_activity_stopped_ind_handler        0x00026d69   Thumb Code    22  app_task.o(.text)
    gapm_profile_added_ind_handler           0x00026d7f   Thumb Code    30  app_task.o(.text)
    gapm_cmp_evt_handler                     0x00026d9d   Thumb Code   438  app_task.o(.text)
    gapc_get_dev_info_req_ind_handler        0x00026f53   Thumb Code   104  app_task.o(.text)
    gapc_set_dev_info_req_ind_handler        0x00026fbb   Thumb Code    34  app_task.o(.text)
    gapc_connection_req_ind_handler          0x00026fdd   Thumb Code   238  app_task.o(.text)
    gapc_param_update_req_ind_handler        0x000270cb   Thumb Code   372  app_task.o(.text)
    gapc_cmp_evt_handler                     0x0002723f   Thumb Code   132  app_task.o(.text)
    gapc_disconnect_ind_handler              0x000272c3   Thumb Code    28  app_task.o(.text)
    appm_msg_handler                         0x000272df   Thumb Code    68  app_task.o(.text)
    gapm_gen_rand_nb_ind_handler             0x00027323   Thumb Code    38  app_task.o(.text)
    gapc_param_updated_ind_handler           0x00027349   Thumb Code    40  app_task.o(.text)
    gattc_mtu_changed_ind_handler            0x00027371   Thumb Code    36  app_task.o(.text)
    app_update_conn_param_req_ind_handler    0x00027395   Thumb Code    36  app_task.o(.text)
    app_send_security_req_handler            0x000273b9   Thumb Code    16  app_task.o(.text)
    app_ancs_req_handler                     0x000273c9   Thumb Code    16  app_task.o(.text)
    app_period_timer_handler                 0x000273d9   Thumb Code     4  app_task.o(.text)
    app_mtu_exchange_req_handler             0x000273dd   Thumb Code    48  app_task.o(.text)
    .text                                    0x00027600   Section        0  app_ancsc.o(.text)
    app_ancsc_msg_dflt_handler               0x00027677   Thumb Code    16  app_ancsc.o(.text)
    app_ancsc_enable_rsp_handler             0x00027687   Thumb Code    42  app_ancsc.o(.text)
    app_ancsc_enable_ntf_rsp_handler         0x000276b1   Thumb Code    46  app_ancsc.o(.text)
    app_ancsc_enable_data_ntf_rsp_handler    0x000276df   Thumb Code    18  app_ancsc.o(.text)
    app_ancsc_notification_ntf_unpack        0x000276f1   Thumb Code   114  app_ancsc.o(.text)
    app_ancsc_notification_nft_handler       0x00027763   Thumb Code    12  app_ancsc.o(.text)
    app_ancsc_data_ntf_handler               0x0002776f   Thumb Code    50  app_ancsc.o(.text)
    app_ancsc_get_Socialmsg                  0x000277eb   Thumb Code    70  app_ancsc.o(.text)
    app_ancsc_IncomingCall_unpack            0x00027831   Thumb Code    46  app_ancsc.o(.text)
    app_ancsc_get_incomingcall_number        0x0002785f   Thumb Code    82  app_ancsc.o(.text)
    .text                                    0x00027ab0   Section        0  rwble.o(.text)
    .text                                    0x00027be4   Section        0  rwip.o(.text)
    .text                                    0x00027f74   Section        0  nvds.o(.text)
    nvds_walk_tag                            0x00027f75   Thumb Code    58  nvds.o(.text)
    nvds_read                                0x00027faf   Thumb Code    24  nvds.o(.text)
    nvds_write                               0x00027fc7   Thumb Code    24  nvds.o(.text)
    nvds_erase                               0x00027fdf   Thumb Code    20  nvds.o(.text)
    nvds_browse_tag                          0x000281a3   Thumb Code    52  nvds.o(.text)
    nvds_init_memory                         0x000281d7   Thumb Code    28  nvds.o(.text)
    nvds_purge                               0x000281f3   Thumb Code    96  nvds.o(.text)
    .text                                    0x00028270   Section        0  prf_utils.o(.text)
    .text                                    0x0002864c   Section        0  prf.o(.text)
    prf_itf_get                              0x0002864d   Thumb Code    62  prf.o(.text)
    .text                                    0x000288a8   Section        0  flash.o(.text)
    .text                                    0x00028fa8   Section        0  rf_xvr.o(.text)
    rf_reset                                 0x00028fa9   Thumb Code     2  rf_xvr.o(.text)
    rf_txpwr_cs_get                          0x00028fab   Thumb Code    46  rf_xvr.o(.text)
    rf_txpwr_dbm_get                         0x00028fd9   Thumb Code     4  rf_xvr.o(.text)
    rf_sleep                                 0x00028fdd   Thumb Code    14  rf_xvr.o(.text)
    rf_rssi_convert                          0x00028feb   Thumb Code    10  rf_xvr.o(.text)
    rf_rpl_reg_rd                            0x00028ff5   Thumb Code     4  rf_xvr.o(.text)
    rf_rpl_reg_wr                            0x00028ff9   Thumb Code     4  rf_xvr.o(.text)
    rf_force_agc_enable                      0x00028ffd   Thumb Code    28  rf_xvr.o(.text)
    .text                                    0x000298b0   Section        0  gpio.o(.text)
    .text                                    0x00029a14   Section        0  spi.o(.text)
    .text                                    0x00029da4   Section        0  icu.o(.text)
    .text                                    0x0002a040   Section        0  wdt.o(.text)
    .text                                    0x0002a074   Section        0  uart2.o(.text)
    .text                                    0x0002a178   Section        0  uart.o(.text)
    .text                                    0x0002a3c0   Section        0  aon_rtc.o(.text)
    .text                                    0x0002a434   Section        0  intc.o(.text)
    .text                                    0x0002a4f4   Section        0  dma.o(.text)
    .text                                    0x0002a570   Section        0  diss.o(.text)
    diss_init                                0x0002a599   Thumb Code   126  diss.o(.text)
    diss_destroy                             0x0002a617   Thumb Code    36  diss.o(.text)
    diss_create                              0x0002a63b   Thumb Code     2  diss.o(.text)
    diss_cleanup                             0x0002a63d   Thumb Code     2  diss.o(.text)
    .text                                    0x0002a6e8   Section        0  diss_task.o(.text)
    diss_set_value_req_handler               0x0002a6e9   Thumb Code   148  diss_task.o(.text)
    gattc_read_req_ind_handler               0x0002a77d   Thumb Code   186  diss_task.o(.text)
    diss_value_cfm_handler                   0x0002a837   Thumb Code   120  diss_task.o(.text)
    .text                                    0x0002a8d8   Section        0  bass.o(.text)
    bass_init                                0x0002a8d9   Thumb Code   332  bass.o(.text)
    bass_destroy                             0x0002aa25   Thumb Code    28  bass.o(.text)
    bass_create                              0x0002aa41   Thumb Code    10  bass.o(.text)
    bass_cleanup                             0x0002aa4b   Thumb Code    10  bass.o(.text)
    bass_notify_batt_lvl                     0x0002aacf   Thumb Code    64  bass.o(.text)
    .text                                    0x0002ac80   Section        0  bass_task.o(.text)
    bass_enable_req_handler                  0x0002ac81   Thumb Code   122  bass_task.o(.text)
    bass_batt_level_upd_req_handler          0x0002acfb   Thumb Code   102  bass_task.o(.text)
    gattc_att_info_req_ind_handler           0x0002ad61   Thumb Code    78  bass_task.o(.text)
    gattc_write_req_ind_handler              0x0002adaf   Thumb Code   160  bass_task.o(.text)
    gattc_read_req_ind_handler               0x0002ae4f   Thumb Code   192  bass_task.o(.text)
    gattc_cmp_evt_handler                    0x0002af0f   Thumb Code    16  bass_task.o(.text)
    .text                                    0x0002af4c   Section        0  ancsc.o(.text)
    ancsc_init                               0x0002af4d   Thumb Code    92  ancsc.o(.text)
    ancsc_destroy                            0x0002afa9   Thumb Code    42  ancsc.o(.text)
    ancsc_create                             0x0002afd3   Thumb Code    16  ancsc.o(.text)
    ancsc_cleanup                            0x0002afe3   Thumb Code    40  ancsc.o(.text)
    .text                                    0x0002b068   Section        0  ancsc_task.o(.text)
    ancsc_enable_req_handler                 0x0002b069   Thumb Code   140  ancsc_task.o(.text)
    gattc_sdp_svc_ind_handler                0x0002b0f5   Thumb Code   170  ancsc_task.o(.text)
    ancsc_ntf_src_ntf_cfg_req_handler        0x0002b19f   Thumb Code   124  ancsc_task.o(.text)
    ancsc_data_src_ntf_cfg_req_handler       0x0002b21b   Thumb Code   124  ancsc_task.o(.text)
    gattc_cmp_evt_handler                    0x0002b297   Thumb Code   266  ancsc_task.o(.text)
    ancsc_msg_default_handler                0x0002b3a1   Thumb Code    16  ancsc_task.o(.text)
    ancsc_wr_cntl_point_req_handler          0x0002b3b1   Thumb Code    40  ancsc_task.o(.text)
    gattc_event_ind_handler                  0x0002b3d9   Thumb Code   320  ancsc_task.o(.text)
    .text                                    0x0002b538   Section        0  oads.o(.text)
    oads_init                                0x0002b539   Thumb Code   192  oads.o(.text)
    oads_destroy                             0x0002b5f9   Thumb Code    28  oads.o(.text)
    oads_create                              0x0002b615   Thumb Code    18  oads.o(.text)
    oads_cleanup                             0x0002b627   Thumb Code    18  oads.o(.text)
    oadImgIdentifyReq                        0x0002b717   Thumb Code   150  oads.o(.text)
    oadImgBlockReq                           0x0002b7ad   Thumb Code    76  oads.o(.text)
    .text                                    0x0002bd2c   Section        0  oads_task.o(.text)
    oads_enable_req_handler                  0x0002bd2d   Thumb Code   118  oads_task.o(.text)
    oads_ffc1_upd_req_handler                0x0002bda3   Thumb Code    12  oads_task.o(.text)
    oads_ffc2_upd_req_handler                0x0002bdaf   Thumb Code    16  oads_task.o(.text)
    gattc_write_req_ind_handler              0x0002bdbf   Thumb Code   278  oads_task.o(.text)
    gattc_read_req_ind_handler               0x0002bed5   Thumb Code   216  oads_task.o(.text)
    gattc_cmp_evt_handler                    0x0002bfad   Thumb Code     4  oads_task.o(.text)
    .text                                    0x0002c068   Section        0  w25x40c.o(.text)
    Delay_ms                                 0x0002c44b   Thumb Code    26  w25x40c.o(.text)
    .text                                    0x0002c4c0   Section        0  lcd360.o(.text)
    Delay                                    0x0002d2a7   Thumb Code    20  lcd360.o(.text)
    .text                                    0x0002d2c8   Section        0  app_f000.o(.text)
    f000s_f004_val_ntf_cfg_ind_handler       0x0002d37b   Thumb Code    14  app_f000.o(.text)
    f000s_f005_val_ind_cfg_ind_handler       0x0002d389   Thumb Code    14  app_f000.o(.text)
    f004_val_upd_rsp_handler                 0x0002d397   Thumb Code    16  app_f000.o(.text)
    f005_val_upd_rsp_handler                 0x0002d3a7   Thumb Code    18  app_f000.o(.text)
    app_f000_msg_dflt_handler                0x0002d3b9   Thumb Code    16  app_f000.o(.text)
    f002_writer_cmd_handler                  0x0002d3c9   Thumb Code   102  app_f000.o(.text)
    f003_writer_req_handler                  0x0002d42f   Thumb Code    50  app_f000.o(.text)
    .text                                    0x0002d530   Section        0  f000s.o(.text)
    f000s_init                               0x0002d531   Thumb Code   234  f000s.o(.text)
    f000s_destroy                            0x0002d61b   Thumb Code    28  f000s.o(.text)
    f000s_create                             0x0002d637   Thumb Code    18  f000s.o(.text)
    f000s_cleanup                            0x0002d649   Thumb Code    18  f000s.o(.text)
    .text                                    0x0002d744   Section        0  f000s_task.o(.text)
    f000s_f004_val_upd_req_handler           0x0002d745   Thumb Code    92  f000s_task.o(.text)
    f000s_f005_val_upd_req_handler           0x0002d7a1   Thumb Code    92  f000s_task.o(.text)
    gattc_att_info_req_ind_handler           0x0002d7fd   Thumb Code   102  f000s_task.o(.text)
    gattc_write_req_ind_handler              0x0002d863   Thumb Code   340  f000s_task.o(.text)
    gattc_read_req_ind_handler               0x0002d9b7   Thumb Code   258  f000s_task.o(.text)
    gattc_cmp_evt_handler                    0x0002dab9   Thumb Code   112  f000s_task.o(.text)
    .text                                    0x0002dbdc   Section        0  vsprintf.o(.text)
    .text                                    0x0002dc00   Section        0  _printf_pad.o(.text)
    .text                                    0x0002dc4e   Section        0  _printf_truncate.o(.text)
    .text                                    0x0002dc7a   Section        0  _printf_str.o(.text)
    .text                                    0x0002dcd4   Section        0  _printf_dec.o(.text)
    .text                                    0x0002dd48   Section        0  _printf_charcount.o(.text)
    .text                                    0x0002dd70   Section        0  _printf_char_common.o(.text)
    _printf_input_char                       0x0002dd71   Thumb Code    10  _printf_char_common.o(.text)
    .text                                    0x0002dda0   Section        0  _sputc.o(.text)
    .text                                    0x0002ddac   Section        0  _printf_wctomb.o(.text)
    .text                                    0x0002de70   Section        0  _printf_longlong_dec.o(.text)
    .text                                    0x0002dee8   Section        0  _printf_oct_int_ll.o(.text)
    _printf_longlong_oct_internal            0x0002dee9   Thumb Code     0  _printf_oct_int_ll.o(.text)
    .text                                    0x0002df60   Section        0  _printf_hex_int_ll_ptr.o(.text)
    _printf_hex_common                       0x0002df61   Thumb Code     0  _printf_hex_int_ll_ptr.o(.text)
    .text                                    0x0002dff8   Section        0  __printf_flags_ss_wp.o(.text)
    .text                                    0x0002e180   Section      152  lludiv10.o(.text)
    .text                                    0x0002e218   Section        0  _printf_intcommon.o(.text)
    .text                                    0x0002e2c8   Section        0  _printf_fp_dec.o(.text)
    _fp_digits                               0x0002e2cb   Thumb Code   410  _printf_fp_dec.o(.text)
    .text                                    0x0002e6e4   Section        0  _printf_fp_hex.o(.text)
    .text                                    0x0002e9c4   Section        0  _printf_char.o(.text)
    .text                                    0x0002e9fc   Section        0  _printf_wchar.o(.text)
    .text                                    0x0002ea2a   Section        0  _wcrtomb.o(.text)
    .text                                    0x0002ea6c   Section       44  rtudiv10.o(.text)
    .text                                    0x0002ea98   Section       20  rt_ctype_table.o(.text)
    .text                                    0x0002eaac   Section       12  rt_locale_intlibspace.o(.text)
    .text                                    0x0002eab8   Section        0  _printf_fp_infnan.o(.text)
    .text                                    0x0002eb40   Section        0  bigflt0.o(.text)
    .text                                    0x0002ec18   Section        0  exit.o(.text)
    .text                                    0x0002ec28   Section      244  strcmp.o(.text)
    .text                                    0x0002ed1c   Section        4  use_no_semi.o(.text)
    .text                                    0x0002ed20   Section        0  indicate_semi.o(.text)
    .text                                    0x0002ed20   Section        0  sys_exit.o(.text)
    CL$$btod_d2e                             0x0002ed2c   Section       56  btod.o(CL$$btod_d2e)
    CL$$btod_d2e_denorm_low                  0x0002ed64   Section       84  btod.o(CL$$btod_d2e_denorm_low)
    CL$$btod_d2e_norm_op1                    0x0002edb8   Section      104  btod.o(CL$$btod_d2e_norm_op1)
    CL$$btod_div_common                      0x0002ee20   Section      840  btod.o(CL$$btod_div_common)
    CL$$btod_e2e                             0x0002f168   Section      244  btod.o(CL$$btod_e2e)
    CL$$btod_ediv                            0x0002f25c   Section       52  btod.o(CL$$btod_ediv)
    CL$$btod_emul                            0x0002f290   Section       52  btod.o(CL$$btod_emul)
    CL$$btod_mult_common                     0x0002f2c4   Section      612  btod.o(CL$$btod_mult_common)
    i.__ARM_fpclassify                       0x0002f558   Section        0  fpclassify.o(i.__ARM_fpclassify)
    i._is_digit                              0x0002f588   Section        0  __printf_wp.o(i._is_digit)
    locale$$code                             0x0002f598   Section       72  lc_numeric_c.o(locale$$code)
    locale$$code                             0x0002f5e0   Section       72  lc_ctype_c.o(locale$$code)
    x$fpl$dfltu                              0x0002f628   Section       44  dflt_clz.o(x$fpl$dfltu)
    x$fpl$dmul                               0x0002f654   Section      376  dmul.o(x$fpl$dmul)
    x$fpl$dnaninf                            0x0002f7cc   Section      184  dnaninf.o(x$fpl$dnaninf)
    x$fpl$dretinf                            0x0002f884   Section       16  dretinf.o(x$fpl$dretinf)
    x$fpl$ieeestatus                         0x0002f894   Section        8  istatus.o(x$fpl$ieeestatus)
    x$fpl$printf1                            0x0002f89c   Section        4  printf1.o(x$fpl$printf1)
    x$fpl$printf2                            0x0002f8a0   Section        4  printf2.o(x$fpl$printf2)
    .constdata                               0x0002f8a4   Section       16  main.o(.constdata)
    x$fpl$usenofp                            0x0002f8a4   Section        0  usenofp.o(x$fpl$usenofp)
    .constdata                               0x0002f8b4   Section       47  app.o(.constdata)
    appm_add_svc_func_list                   0x0002f8b4   Data          16  app.o(.constdata)
    __func__                                 0x0002f8c4   Data          13  app.o(.constdata)
    __func__                                 0x0002f8d1   Data          18  app.o(.constdata)
    .constdata                               0x0002f8e4   Section       32  app_batt.o(.constdata)
    .constdata                               0x0002f904   Section        8  app_batt.o(.constdata)
    .constdata                               0x0002f90c   Section        8  app_dis.o(.constdata)
    .constdata                               0x0002f914   Section        8  app_dis.o(.constdata)
    .constdata                               0x0002f91c   Section       48  app_oads.o(.constdata)
    .constdata                               0x0002f94c   Section        8  app_oads.o(.constdata)
    .constdata                               0x0002f954   Section      168  app_oads.o(.constdata)
    __func__                                 0x0002f954   Data          26  app_oads.o(.constdata)
    __func__                                 0x0002f96e   Data          28  app_oads.o(.constdata)
    __func__                                 0x0002f98a   Data          28  app_oads.o(.constdata)
    __func__                                 0x0002f9a6   Data          17  app_oads.o(.constdata)
    __func__                                 0x0002f9b7   Data          17  app_oads.o(.constdata)
    __func__                                 0x0002f9c8   Data          26  app_oads.o(.constdata)
    __func__                                 0x0002f9e2   Data          26  app_oads.o(.constdata)
    .constdata                               0x0002f9fc   Section       70  app_sec.o(.constdata)
    Bond_event_type_str                      0x0002f9fc   Data          44  app_sec.o(.constdata)
    __func__                                 0x0002fa28   Data          26  app_sec.o(.constdata)
    .constdata                               0x0002fa44   Section       40  app_sec.o(.constdata)
    .constdata                               0x0002fa6c   Section        8  app_sec.o(.constdata)
    .constdata                               0x0002fa74   Section      152  app_task.o(.constdata)
    appm_msg_handler_tab                     0x0002fa74   Data         152  app_task.o(.constdata)
    .constdata                               0x0002fb0c   Section       12  app_task.o(.constdata)
    .constdata                               0x0002fb18   Section      174  app_task.o(.constdata)
    __func__                                 0x0002fb18   Data          31  app_task.o(.constdata)
    __func__                                 0x0002fb37   Data          21  app_task.o(.constdata)
    __func__                                 0x0002fb4c   Data          32  app_task.o(.constdata)
    __func__                                 0x0002fb6c   Data          31  app_task.o(.constdata)
    __func__                                 0x0002fb8b   Data          30  app_task.o(.constdata)
    __func__                                 0x0002fba9   Data          29  app_task.o(.constdata)
    .constdata                               0x0002fbc6   Section      289  app_ancsc.o(.constdata)
    __func__                                 0x0002fbc6   Data          15  app_ancsc.o(.constdata)
    __func__                                 0x0002fbd5   Data          19  app_ancsc.o(.constdata)
    __func__                                 0x0002fbe8   Data          21  app_ancsc.o(.constdata)
    __func__                                 0x0002fbfd   Data          27  app_ancsc.o(.constdata)
    __func__                                 0x0002fc18   Data          29  app_ancsc.o(.constdata)
    __func__                                 0x0002fc35   Data          33  app_ancsc.o(.constdata)
    __func__                                 0x0002fc56   Data          38  app_ancsc.o(.constdata)
    __func__                                 0x0002fc7c   Data          27  app_ancsc.o(.constdata)
    __func__                                 0x0002fc97   Data          34  app_ancsc.o(.constdata)
    __func__                                 0x0002fcb9   Data          22  app_ancsc.o(.constdata)
    __func__                                 0x0002fccf   Data          24  app_ancsc.o(.constdata)
    .constdata                               0x0002fce7   Section       10  rwble.o(.constdata)
    __func__                                 0x0002fce7   Data          10  rwble.o(.constdata)
    .constdata                               0x0002fcf1   Section        4  nvds.o(.constdata)
    nvds_magic_number                        0x0002fcf1   Data           4  nvds.o(.constdata)
    .constdata                               0x0002fcf5   Section       15  rf_xvr.o(.constdata)
    RF_RPL_TX_PW_CONV_TBL                    0x0002fcf5   Data          15  rf_xvr.o(.constdata)
    .constdata                               0x0002fd04   Section      168  diss.o(.constdata)
    .constdata                               0x0002fdac   Section       24  diss_task.o(.constdata)
    diss_msg_handler_tab                     0x0002fdac   Data          24  diss_task.o(.constdata)
    .constdata                               0x0002fdc4   Section       56  bass.o(.constdata)
    .constdata                               0x0002fdfc   Section       48  bass_task.o(.constdata)
    bass_msg_handler_tab                     0x0002fdfc   Data          48  bass_task.o(.constdata)
    .constdata                               0x0002fe2c   Section       16  ancsc.o(.constdata)
    .constdata                               0x0002fe3c   Section      136  ancsc_task.o(.constdata)
    ancsc_msg_handler_tab                    0x0002fe50   Data          64  ancsc_task.o(.constdata)
    __func__                                 0x0002fe90   Data          26  ancsc_task.o(.constdata)
    __func__                                 0x0002feaa   Data          26  ancsc_task.o(.constdata)
    .constdata                               0x0002fec4   Section      158  oads.o(.constdata)
    __func__                                 0x0002ff1c   Data          32  oads.o(.constdata)
    __func__                                 0x0002ff3c   Data          20  oads.o(.constdata)
    __func__                                 0x0002ff50   Data          18  oads.o(.constdata)
    .constdata                               0x0002ff64   Section       98  oads_task.o(.constdata)
    oads_msg_handler_tab                     0x0002ff64   Data          48  oads_task.o(.constdata)
    __func__                                 0x0002ff94   Data          24  oads_task.o(.constdata)
    __func__                                 0x0002ffac   Data          26  oads_task.o(.constdata)
    .constdata                               0x0002ffc8   Section       56  app_f000.o(.constdata)
    .constdata                               0x00030000   Section        8  app_f000.o(.constdata)
    .constdata                               0x00030008   Section       76  app_f000.o(.constdata)
    __func__                                 0x00030008   Data          25  app_f000.o(.constdata)
    __func__                                 0x00030021   Data          25  app_f000.o(.constdata)
    __func__                                 0x0003003a   Data          26  app_f000.o(.constdata)
    .constdata                               0x00030054   Section      128  f000s.o(.constdata)
    .constdata                               0x000300d4   Section      218  f000s_task.o(.constdata)
    f000s_msg_handler_tab                    0x000300d4   Data          48  f000s_task.o(.constdata)
    __func__                                 0x00030104   Data          31  f000s_task.o(.constdata)
    __func__                                 0x00030123   Data          31  f000s_task.o(.constdata)
    __func__                                 0x00030142   Data          31  f000s_task.o(.constdata)
    __func__                                 0x00030161   Data          28  f000s_task.o(.constdata)
    __func__                                 0x0003017d   Data          27  f000s_task.o(.constdata)
    __func__                                 0x00030198   Data          22  f000s_task.o(.constdata)
    .constdata                               0x000301b0   Section        8  _printf_wctomb.o(.constdata)
    initial_mbstate                          0x000301b0   Data           8  _printf_wctomb.o(.constdata)
    .constdata                               0x000301b8   Section       40  _printf_hex_int_ll_ptr.o(.constdata)
    uc_hextab                                0x000301b8   Data          20  _printf_hex_int_ll_ptr.o(.constdata)
    lc_hextab                                0x000301cc   Data          20  _printf_hex_int_ll_ptr.o(.constdata)
    .constdata                               0x000301e0   Section       17  __printf_flags_ss_wp.o(.constdata)
    maptable                                 0x000301e0   Data          17  __printf_flags_ss_wp.o(.constdata)
    .constdata                               0x000301f1   Section       38  _printf_fp_hex.o(.constdata)
    lc_hextab                                0x000301f1   Data          19  _printf_fp_hex.o(.constdata)
    uc_hextab                                0x00030204   Data          19  _printf_fp_hex.o(.constdata)
    .constdata                               0x00030218   Section      148  bigflt0.o(.constdata)
    tenpwrs_x                                0x00030218   Data          60  bigflt0.o(.constdata)
    tenpwrs_i                                0x00030254   Data          64  bigflt0.o(.constdata)
    .conststring                             0x000302ac   Section      202  app_sec.o(.conststring)
    .conststring                             0x00030378   Section      232  ancsc_task.o(.conststring)
    locale$$data                             0x00030490   Section       28  lc_numeric_c.o(locale$$data)
    __lcnum_c_name                           0x00030494   Data           2  lc_numeric_c.o(locale$$data)
    __lcnum_c_start                          0x0003049c   Data           0  lc_numeric_c.o(locale$$data)
    __lcnum_c_point                          0x000304a8   Data           0  lc_numeric_c.o(locale$$data)
    __lcnum_c_thousands                      0x000304aa   Data           0  lc_numeric_c.o(locale$$data)
    __lcnum_c_grouping                       0x000304ab   Data           0  lc_numeric_c.o(locale$$data)
    locale$$data                             0x000304ac   Section      272  lc_ctype_c.o(locale$$data)
    __lcnum_c_end                            0x000304ac   Data           0  lc_numeric_c.o(locale$$data)
    __lcctype_c_name                         0x000304b0   Data           2  lc_ctype_c.o(locale$$data)
    __lcctype_c_start                        0x000304b8   Data           0  lc_ctype_c.o(locale$$data)
    __lcctype_c_end                          0x000305bc   Data           0  lc_ctype_c.o(locale$$data)
    .data                                    0x00400800   Section        2  app_batt.o(.data)
    .data                                    0x00400802   Section        1  app_oads.o(.data)
    .data                                    0x00400803   Section        5  app_sec.o(.data)
    .data                                    0x00400808   Section        1  app_task.o(.data)
    .data                                    0x0040080c   Section        8  app_ancsc.o(.data)
    .data                                    0x00400814   Section        4  rwble.o(.data)
    rwble_env                                0x00400814   Data           4  rwble.o(.data)
    .data                                    0x00400818   Section        1  rwip.o(.data)
    .data                                    0x0040081c   Section       12  flash.o(.data)
    .data                                    0x00400828   Section        4  gpio.o(.data)
    gpio_int_cb                              0x00400828   Data           4  gpio.o(.data)
    .data                                    0x0040082c   Section        1  spi.o(.data)
    debug_cnt                                0x0040082c   Data           1  spi.o(.data)
    .data                                    0x0040082d   Section        5  icu.o(.data)
    default_sleep_mode                       0x0040082d   Data           1  icu.o(.data)
    system_clk                               0x0040082f   Data           1  icu.o(.data)
    .data                                    0x00400834   Section        8  uart2.o(.data)
    .data                                    0x0040083c   Section       12  uart.o(.data)
    uart_rx_done                             0x0040083c   Data           1  uart.o(.data)
    rx_cmd_count                             0x0040083d   Data           1  uart.o(.data)
    cmd_status                               0x0040083e   Data           1  uart.o(.data)
    index                                    0x00400840   Data           2  uart.o(.data)
    length                                   0x00400842   Data           2  uart.o(.data)
    uart_rx_index                            0x00400844   Data           4  uart.o(.data)
    .data                                    0x00400848   Section        4  aon_rtc.o(.data)
    rtc_cnt                                  0x00400848   Data           4  aon_rtc.o(.data)
    .data                                    0x0040084c   Section       16  oads.o(.data)
    oad_uid_check_status                     0x0040084c   Data           1  oads.o(.data)
    oadBlkNum                                0x00400850   Data           2  oads.o(.data)
    oadBlkTot                                0x00400852   Data           2  oads.o(.data)
    validBlockCnt                            0x00400854   Data           2  oads.o(.data)
    .data                                    0x0040085c   Section        8  lcd360.o(.data)
    keypress                                 0x0040085c   Data           1  lcd360.o(.data)
    keypresstime                             0x00400860   Data           4  lcd360.o(.data)
    .data                                    0x00400864   Section        3  app_f000.o(.data)
    .bss                                     0x00400868   Section     4096  main.o(.bss)
    .bss                                     0x00401868   Section       46  app.o(.bss)
    .bss                                     0x00401898   Section     9732  rwip.o(.bss)
    .bss                                     0x00403e9c   Section       24  nvds.o(.bss)
    nvds_env                                 0x00403e9c   Data          24  nvds.o(.bss)
    .bss                                     0x00403eb4   Section      200  prf.o(.bss)
    .bss                                     0x00403f7c   Section      128  rf_xvr.o(.bss)
    .bss                                     0x00403ffc   Section       12  spi.o(.bss)
    .bss                                     0x00404008   Section      256  uart2.o(.bss)
    .bss                                     0x00404108   Section      200  uart.o(.bss)
    uart_cmd                                 0x00404108   Data          32  uart.o(.bss)
    uart_env                                 0x00404128   Data          40  uart.o(.bss)
    .bss                                     0x004041d0   Section      192  oads.o(.bss)
    .bss                                     0x00404290   Section       96  libspace.o(.bss)
    ke_heap                                  0x00812800   Section     4540  rwip.o(ke_heap)

    Global Symbols

    Symbol Name                              Value     Ov Type        Size  Object(Section)

    BuildAttributes$$THM_ISAv2$ARM_ISAv5$E$P$S$PE$A:L22$X:L11$S22$IEEE1$IW$USESV6$~STKCKD$USESV7$~SHL$OTIME$ROPI$IEEEJ$EBA8$UX$STANDARDLIB$REQ8$PRES8$EABIv2 0x00000000   Number         0  anon$$obj.o ABSOLUTE
    Image$$RAM_BSS$$Length                   0x00000000   Number         0  anon$$obj.o ABSOLUTE
    __ARM_use_no_argv                        0x00000000   Number         0  main.o ABSOLUTE
    _printf_flags                            0x00000000   Number         0  printf_stubs.o ABSOLUTE
    _printf_return_value                     0x00000000   Number         0  printf_stubs.o ABSOLUTE
    _printf_sizespec                         0x00000000   Number         0  printf_stubs.o ABSOLUTE
    _printf_widthprec                        0x00000000   Number         0  printf_stubs.o ABSOLUTE
    Image$$ZI$$Limit                          - Undefined Weak Reference
    __ARM_exceptions_init                     - Undefined Weak Reference
    __alloca_initialize                       - Undefined Weak Reference
    __arm_preinit_                            - Undefined Weak Reference
    __cpp_initialize__aeabi_                  - Undefined Weak Reference
    __cxa_finalize                            - Undefined Weak Reference
    __sigvec_lookup                           - Undefined Weak Reference
    _atexit_init                              - Undefined Weak Reference
    _call_atexit_fns                          - Undefined Weak Reference
    _clock_init                               - Undefined Weak Reference
    _fp_trap_init                             - Undefined Weak Reference
    _fp_trap_shutdown                         - Undefined Weak Reference
    _get_lc_collate                           - Undefined Weak Reference
    _get_lc_monetary                          - Undefined Weak Reference
    _get_lc_time                              - Undefined Weak Reference
    _getenv_init                              - Undefined Weak Reference
    _handle_redirection                       - Undefined Weak Reference
    _init_alloc                               - Undefined Weak Reference
    _init_user_alloc                          - Undefined Weak Reference
    _initio                                   - Undefined Weak Reference
    _printf_mbtowc                            - Undefined Weak Reference
    _printf_wc                                - Undefined Weak Reference
    _rand_init                                - Undefined Weak Reference
    _signal_finish                            - Undefined Weak Reference
    _signal_init                              - Undefined Weak Reference
    _terminate_alloc                          - Undefined Weak Reference
    _terminate_user_alloc                     - Undefined Weak Reference
    _terminateio                              - Undefined Weak Reference
    Image$$RAM_STACK_UNUSED$$ZI$$Length      0x00000060   Number         0  anon$$obj.o ABSOLUTE
    Image$$RAM_DATA$$Length                  0x00000068   Number         0  anon$$obj.o ABSOLUTE
    Image$$RAM_STACK_FIQ$$ZI$$Length         0x000001f0   Number         0  anon$$obj.o ABSOLUTE
    Image$$RAM_STACK_IRQ$$ZI$$Length         0x000003f0   Number         0  anon$$obj.o ABSOLUTE
    Image$$RAM_STACK_SVC$$ZI$$Length         0x000006f0   Number         0  anon$$obj.o ABSOLUTE
    uart_stack_register                      0x00002181   Thumb Code     0  peripheral_stack_symbol.txt ABSOLUTE
    Undefined_Exception                      0x0000219d   Thumb Code     0  peripheral_stack_symbol.txt ABSOLUTE
    SoftwareInterrupt_Exception              0x0000219f   Thumb Code     0  peripheral_stack_symbol.txt ABSOLUTE
    PrefetchAbort_Exception                  0x000021a1   Thumb Code     0  peripheral_stack_symbol.txt ABSOLUTE
    DataAbort_Exception                      0x000021a3   Thumb Code     0  peripheral_stack_symbol.txt ABSOLUTE
    Reserved_Exception                       0x000021a5   Thumb Code     0  peripheral_stack_symbol.txt ABSOLUTE
    stack_main                               0x00002245   Thumb Code     0  peripheral_stack_symbol.txt ABSOLUTE
    ecc_init                                 0x0000360d   Thumb Code     0  peripheral_stack_symbol.txt ABSOLUTE
    Image$$RAM_BSS$$ZI$$Length               0x00003a88   Number         0  anon$$obj.o ABSOLUTE
    h4tl_init                                0x00003ccd   Thumb Code     0  peripheral_stack_symbol.txt ABSOLUTE
    h4tl_write                               0x00003d23   Thumb Code     0  peripheral_stack_symbol.txt ABSOLUTE
    h4tl_start                               0x00003d65   Thumb Code     0  peripheral_stack_symbol.txt ABSOLUTE
    h4tl_stop                                0x00003d7d   Thumb Code     0  peripheral_stack_symbol.txt ABSOLUTE
    ke_init                                  0x00003e29   Thumb Code     0  peripheral_stack_symbol.txt ABSOLUTE
    ke_flush                                 0x00003e55   Thumb Code     0  peripheral_stack_symbol.txt ABSOLUTE
    ke_sleep_check                           0x00003e91   Thumb Code     0  peripheral_stack_symbol.txt ABSOLUTE
    ke_event_init                            0x00003ea9   Thumb Code     0  peripheral_stack_symbol.txt ABSOLUTE
    ke_event_callback_set                    0x00003eb5   Thumb Code     0  peripheral_stack_symbol.txt ABSOLUTE
    ke_event_set                             0x00003ec9   Thumb Code     0  peripheral_stack_symbol.txt ABSOLUTE
    ke_event_clear                           0x00003efb   Thumb Code     0  peripheral_stack_symbol.txt ABSOLUTE
    ke_event_get                             0x00003f2d   Thumb Code     0  peripheral_stack_symbol.txt ABSOLUTE
    ke_event_get_all                         0x00003f61   Thumb Code     0  peripheral_stack_symbol.txt ABSOLUTE
    ke_event_flush                           0x00003f67   Thumb Code     0  peripheral_stack_symbol.txt ABSOLUTE
    ke_event_schedule                        0x00003f6f   Thumb Code     0  peripheral_stack_symbol.txt ABSOLUTE
    ke_mem_init                              0x00003f99   Thumb Code     0  peripheral_stack_symbol.txt ABSOLUTE
    ke_mem_is_empty                          0x00003ff9   Thumb Code     0  peripheral_stack_symbol.txt ABSOLUTE
    ke_check_malloc                          0x0000403d   Thumb Code     0  peripheral_stack_symbol.txt ABSOLUTE
    ke_malloc                                0x000040cd   Thumb Code     0  peripheral_stack_symbol.txt ABSOLUTE
    ke_free                                  0x00004197   Thumb Code     0  peripheral_stack_symbol.txt ABSOLUTE
    ke_is_free                               0x0000426b   Thumb Code     0  peripheral_stack_symbol.txt ABSOLUTE
    ke_msg_alloc                             0x00004295   Thumb Code     0  peripheral_stack_symbol.txt ABSOLUTE
    ke_msg_send                              0x000042c7   Thumb Code     0  peripheral_stack_symbol.txt ABSOLUTE
    ke_msg_send_basic                        0x000042f9   Thumb Code     0  peripheral_stack_symbol.txt ABSOLUTE
    ke_msg_forward                           0x00004307   Thumb Code     0  peripheral_stack_symbol.txt ABSOLUTE
    ke_msg_forward_new_id                    0x00004311   Thumb Code     0  peripheral_stack_symbol.txt ABSOLUTE
    ke_msg_free                              0x00004321   Thumb Code     0  peripheral_stack_symbol.txt ABSOLUTE
    ke_msg_dest_id_get                       0x00004329   Thumb Code     0  peripheral_stack_symbol.txt ABSOLUTE
    ke_msg_src_id_get                        0x0000432f   Thumb Code     0  peripheral_stack_symbol.txt ABSOLUTE
    ke_msg_in_queue                          0x00004335   Thumb Code     0  peripheral_stack_symbol.txt ABSOLUTE
    ke_queue_extract                         0x00004345   Thumb Code     0  peripheral_stack_symbol.txt ABSOLUTE
    ke_queue_insert                          0x00004383   Thumb Code     0  peripheral_stack_symbol.txt ABSOLUTE
    ke_task_init                             0x00004495   Thumb Code     0  peripheral_stack_symbol.txt ABSOLUTE
    ke_task_create                           0x000044a9   Thumb Code     0  peripheral_stack_symbol.txt ABSOLUTE
    ke_task_delete                           0x000044eb   Thumb Code     0  peripheral_stack_symbol.txt ABSOLUTE
    ke_state_set                             0x00004521   Thumb Code     0  peripheral_stack_symbol.txt ABSOLUTE
    ke_state_get                             0x0000458b   Thumb Code     0  peripheral_stack_symbol.txt ABSOLUTE
    ke_msg_discard                           0x000045ab   Thumb Code     0  peripheral_stack_symbol.txt ABSOLUTE
    ke_msg_save                              0x000045af   Thumb Code     0  peripheral_stack_symbol.txt ABSOLUTE
    ke_task_msg_flush                        0x000045b3   Thumb Code     0  peripheral_stack_symbol.txt ABSOLUTE
    ke_task_check                            0x000045f3   Thumb Code     0  peripheral_stack_symbol.txt ABSOLUTE
    ke_timer_init                            0x000046d7   Thumb Code     0  peripheral_stack_symbol.txt ABSOLUTE
    ke_timer_set                             0x000046e3   Thumb Code     0  peripheral_stack_symbol.txt ABSOLUTE
    ke_timer_clear                           0x00004775   Thumb Code     0  peripheral_stack_symbol.txt ABSOLUTE
    ke_timer_active                          0x000047d5   Thumb Code     0  peripheral_stack_symbol.txt ABSOLUTE
    ke_timer_adjust_all                      0x000047fb   Thumb Code     0  peripheral_stack_symbol.txt ABSOLUTE
    ble_util_buf_init                        0x00004841   Thumb Code     0  peripheral_stack_symbol.txt ABSOLUTE
    llc_init                                 0x00004acb   Thumb Code     0  peripheral_stack_symbol.txt ABSOLUTE
    llc_stop                                 0x00004b4f   Thumb Code     0  peripheral_stack_symbol.txt ABSOLUTE
    llc_start                                0x00004b7d   Thumb Code     0  peripheral_stack_symbol.txt ABSOLUTE
    hci_command_handler                      0x00007b0f   Thumb Code     0  peripheral_stack_symbol.txt ABSOLUTE
    lld_init                                 0x00009339   Thumb Code     0  peripheral_stack_symbol.txt ABSOLUTE
    lld_adv_start                            0x0000b091   Thumb Code     0  peripheral_stack_symbol.txt ABSOLUTE
    lld_adv_stop                             0x0000b5e7   Thumb Code     0  peripheral_stack_symbol.txt ABSOLUTE
    lld_con_stop                             0x0000ca05   Thumb Code     0  peripheral_stack_symbol.txt ABSOLUTE
    llm_init                                 0x0000e7cf   Thumb Code     0  peripheral_stack_symbol.txt ABSOLUTE
    hci_evt_mask_set                         0x00011619   Thumb Code     0  peripheral_stack_symbol.txt ABSOLUTE
    hci_init                                 0x00011669   Thumb Code     0  peripheral_stack_symbol.txt ABSOLUTE
    hci_send_2_host                          0x0001169d   Thumb Code     0  peripheral_stack_symbol.txt ABSOLUTE
    hci_send_2_controller                    0x00011751   Thumb Code     0  peripheral_stack_symbol.txt ABSOLUTE
    hci_fc_init                              0x00011875   Thumb Code     0  peripheral_stack_symbol.txt ABSOLUTE
    hci_fc_acl_buf_size_set                  0x00011881   Thumb Code     0  peripheral_stack_symbol.txt ABSOLUTE
    hci_fc_acl_en                            0x00011891   Thumb Code     0  peripheral_stack_symbol.txt ABSOLUTE
    hci_fc_acl_packet_sent                   0x000118b7   Thumb Code     0  peripheral_stack_symbol.txt ABSOLUTE
    hci_fc_host_nb_acl_pkts_complete         0x000118c7   Thumb Code     0  peripheral_stack_symbol.txt ABSOLUTE
    hci_fc_check_host_available_nb_acl_packets 0x000118d9   Thumb Code     0  peripheral_stack_symbol.txt ABSOLUTE
    hci_look_for_cmd_desc                    0x00012473   Thumb Code     0  peripheral_stack_symbol.txt ABSOLUTE
    hci_look_for_evt_desc                    0x000124c3   Thumb Code     0  peripheral_stack_symbol.txt ABSOLUTE
    hci_look_for_le_evt_desc                 0x000124e9   Thumb Code     0  peripheral_stack_symbol.txt ABSOLUTE
    hci_tl_send                              0x0001277d   Thumb Code     0  peripheral_stack_symbol.txt ABSOLUTE
    hci_tl_init                              0x000127c5   Thumb Code     0  peripheral_stack_symbol.txt ABSOLUTE
    hci_cmd_get_max_param_size               0x000127ed   Thumb Code     0  peripheral_stack_symbol.txt ABSOLUTE
    hci_cmd_received                         0x000127ff   Thumb Code     0  peripheral_stack_symbol.txt ABSOLUTE
    hci_acl_tx_data_alloc                    0x0001294f   Thumb Code     0  peripheral_stack_symbol.txt ABSOLUTE
    hci_acl_tx_data_received                 0x000129ad   Thumb Code     0  peripheral_stack_symbol.txt ABSOLUTE
    sch_alarm_init                           0x00012b23   Thumb Code     0  peripheral_stack_symbol.txt ABSOLUTE
    sch_arb_init                             0x00012e7d   Thumb Code     0  peripheral_stack_symbol.txt ABSOLUTE
    sch_plan_init                            0x000133e9   Thumb Code     0  peripheral_stack_symbol.txt ABSOLUTE
    sch_prog_init                            0x00013811   Thumb Code     0  peripheral_stack_symbol.txt ABSOLUTE
    sch_prog_fifo_isr                        0x0001383f   Thumb Code     0  peripheral_stack_symbol.txt ABSOLUTE
    sch_slice_init                           0x00013aab   Thumb Code     0  peripheral_stack_symbol.txt ABSOLUTE
    aes_init                                 0x00013b89   Thumb Code     0  peripheral_stack_symbol.txt ABSOLUTE
    co_list_init                             0x0001487d   Thumb Code     0  peripheral_stack_symbol.txt ABSOLUTE
    co_list_pool_init                        0x00014885   Thumb Code     0  peripheral_stack_symbol.txt ABSOLUTE
    co_list_push_back                        0x000148a3   Thumb Code     0  peripheral_stack_symbol.txt ABSOLUTE
    co_list_push_front                       0x000148cf   Thumb Code     0  peripheral_stack_symbol.txt ABSOLUTE
    co_list_pop_front                        0x000148dd   Thumb Code     0  peripheral_stack_symbol.txt ABSOLUTE
    co_list_extract                          0x000148f1   Thumb Code     0  peripheral_stack_symbol.txt ABSOLUTE
    co_list_extract_after                    0x00014923   Thumb Code     0  peripheral_stack_symbol.txt ABSOLUTE
    co_list_find                             0x00014953   Thumb Code     0  peripheral_stack_symbol.txt ABSOLUTE
    co_list_merge                            0x00014969   Thumb Code     0  peripheral_stack_symbol.txt ABSOLUTE
    co_list_insert_before                    0x00014983   Thumb Code     0  peripheral_stack_symbol.txt ABSOLUTE
    co_list_insert_after                     0x000149ad   Thumb Code     0  peripheral_stack_symbol.txt ABSOLUTE
    co_list_size                             0x000149db   Thumb Code     0  peripheral_stack_symbol.txt ABSOLUTE
    co_bdaddr_compare                        0x00014a1d   Thumb Code     0  peripheral_stack_symbol.txt ABSOLUTE
    rwip_slot_2_lpcycles                     0x00014ee9   Thumb Code     0  peripheral_stack_symbol.txt ABSOLUTE
    rwip_timer_hs_handler                    0x00014ef1   Thumb Code     0  peripheral_stack_symbol.txt ABSOLUTE
    rwip_timer_hus_handler                   0x00014f0d   Thumb Code     0  peripheral_stack_symbol.txt ABSOLUTE
    rwip_timer_10ms_handler                  0x00014f29   Thumb Code     0  peripheral_stack_symbol.txt ABSOLUTE
    rwip_prevent_sleep_clear                 0x00014f63   Thumb Code     0  peripheral_stack_symbol.txt ABSOLUTE
    rwip_crypt_isr_handler                   0x00014f8d   Thumb Code     0  peripheral_stack_symbol.txt ABSOLUTE
    rwip_sw_int_handler                      0x00014fa9   Thumb Code     0  peripheral_stack_symbol.txt ABSOLUTE
    rwip_prevent_sleep_set                   0x00014fbd   Thumb Code     0  peripheral_stack_symbol.txt ABSOLUTE
    rwip_wakeup                              0x00014fe7   Thumb Code     0  peripheral_stack_symbol.txt ABSOLUTE
    rwip_time_get                            0x00015055   Thumb Code     0  peripheral_stack_symbol.txt ABSOLUTE
    rwip_wakeup_end                          0x0001507f   Thumb Code     0  peripheral_stack_symbol.txt ABSOLUTE
    rwip_driver_init                         0x000150dd   Thumb Code     0  peripheral_stack_symbol.txt ABSOLUTE
    gapc_update_state                        0x0001542b   Thumb Code     0  peripheral_stack_symbol.txt ABSOLUTE
    gapc_get_requester                       0x00015459   Thumb Code     0  peripheral_stack_symbol.txt ABSOLUTE
    gapc_send_complete_evt                   0x00015475   Thumb Code     0  peripheral_stack_symbol.txt ABSOLUTE
    gapc_init                                0x0001553f   Thumb Code     0  peripheral_stack_symbol.txt ABSOLUTE
    gapc_con_create                          0x00015585   Thumb Code     0  peripheral_stack_symbol.txt ABSOLUTE
    gapc_con_cleanup                         0x000156b9   Thumb Code     0  peripheral_stack_symbol.txt ABSOLUTE
    gapc_send_disconect_ind                  0x000156c9   Thumb Code     0  peripheral_stack_symbol.txt ABSOLUTE
    gapc_get_conidx                          0x000156eb   Thumb Code     0  peripheral_stack_symbol.txt ABSOLUTE
    gapc_get_conhdl                          0x00015711   Thumb Code     0  peripheral_stack_symbol.txt ABSOLUTE
    gapc_get_role                            0x00015725   Thumb Code     0  peripheral_stack_symbol.txt ABSOLUTE
    gapc_get_bdaddr                          0x0001575b   Thumb Code     0  peripheral_stack_symbol.txt ABSOLUTE
    gapc_send_error_evt                      0x0001578f   Thumb Code     0  peripheral_stack_symbol.txt ABSOLUTE
    gapc_get_operation                       0x000157b1   Thumb Code     0  peripheral_stack_symbol.txt ABSOLUTE
    gapc_get_operation_ptr                   0x000157c7   Thumb Code     0  peripheral_stack_symbol.txt ABSOLUTE
    gapc_set_operation_ptr                   0x000157d3   Thumb Code     0  peripheral_stack_symbol.txt ABSOLUTE
    gapc_reschedule_operation                0x000157df   Thumb Code     0  peripheral_stack_symbol.txt ABSOLUTE
    gapc_is_sec_set                          0x0001582b   Thumb Code     0  peripheral_stack_symbol.txt ABSOLUTE
    gapc_lk_sec_lvl_get                      0x0001585f   Thumb Code     0  peripheral_stack_symbol.txt ABSOLUTE
    gapc_enc_keysize_get                     0x00015879   Thumb Code     0  peripheral_stack_symbol.txt ABSOLUTE
    gapc_auth_set                            0x00015891   Thumb Code     0  peripheral_stack_symbol.txt ABSOLUTE
    gapc_auth_get                            0x000158dd   Thumb Code     0  peripheral_stack_symbol.txt ABSOLUTE
    gapc_param_update_sanity                 0x0001590d   Thumb Code     0  peripheral_stack_symbol.txt ABSOLUTE
    gapc_hci_handler                         0x00015f93   Thumb Code     0  peripheral_stack_symbol.txt ABSOLUTE
    gapc_sig_pdu_recv_handler                0x00016181   Thumb Code     0  peripheral_stack_symbol.txt ABSOLUTE
    gapc_process_op                          0x000183c1   Thumb Code     0  peripheral_stack_symbol.txt ABSOLUTE
    gapm_update_state                        0x00018ec9   Thumb Code     0  peripheral_stack_symbol.txt ABSOLUTE
    gapm_le_psm_cleanup                      0x00018f21   Thumb Code     0  peripheral_stack_symbol.txt ABSOLUTE
    gapm_init                                0x00018f3b   Thumb Code     0  peripheral_stack_symbol.txt ABSOLUTE
    gapm_init_attr                           0x00018fb1   Thumb Code     0  peripheral_stack_symbol.txt ABSOLUTE
    gapm_send_error_evt                      0x00018fdb   Thumb Code     0  peripheral_stack_symbol.txt ABSOLUTE
    gapm_get_operation                       0x00019067   Thumb Code     0  peripheral_stack_symbol.txt ABSOLUTE
    gapm_get_requester                       0x00019079   Thumb Code     0  peripheral_stack_symbol.txt ABSOLUTE
    gapm_send_complete_evt                   0x00019091   Thumb Code     0  peripheral_stack_symbol.txt ABSOLUTE
    gapm_get_address_type                    0x000190d3   Thumb Code     0  peripheral_stack_symbol.txt ABSOLUTE
    gapm_con_create                          0x000190df   Thumb Code     0  peripheral_stack_symbol.txt ABSOLUTE
    gapm_con_cleanup                         0x00019127   Thumb Code     0  peripheral_stack_symbol.txt ABSOLUTE
    gapm_get_id_from_task                    0x0001915d   Thumb Code     0  peripheral_stack_symbol.txt ABSOLUTE
    gapm_get_task_from_id                    0x0001919d   Thumb Code     0  peripheral_stack_symbol.txt ABSOLUTE
    gapm_get_max_mtu                         0x000191e3   Thumb Code     0  peripheral_stack_symbol.txt ABSOLUTE
    gapm_get_max_mps                         0x000191eb   Thumb Code     0  peripheral_stack_symbol.txt ABSOLUTE
    gapm_dle_val_check                       0x000191f3   Thumb Code     0  peripheral_stack_symbol.txt ABSOLUTE
    gapm_is_legacy_pairing_supp              0x0001920f   Thumb Code     0  peripheral_stack_symbol.txt ABSOLUTE
    gapm_is_sec_con_pairing_supp             0x0001921b   Thumb Code     0  peripheral_stack_symbol.txt ABSOLUTE
    gapm_le_psm_find                         0x00019227   Thumb Code     0  peripheral_stack_symbol.txt ABSOLUTE
    gapm_le_psm_get_info                     0x0001923d   Thumb Code     0  peripheral_stack_symbol.txt ABSOLUTE
    gapm_lecb_register                       0x0001926d   Thumb Code     0  peripheral_stack_symbol.txt ABSOLUTE
    gapm_lecb_unregister                     0x0001929d   Thumb Code     0  peripheral_stack_symbol.txt ABSOLUTE
    gapm_is_pref_con_param_pres              0x000192bf   Thumb Code     0  peripheral_stack_symbol.txt ABSOLUTE
    gapm_get_att_handle                      0x000192cb   Thumb Code     0  peripheral_stack_symbol.txt ABSOLUTE
    gapm_get_irk                             0x00019309   Thumb Code     0  peripheral_stack_symbol.txt ABSOLUTE
    gapm_get_bdaddr                          0x0001930d   Thumb Code     0  peripheral_stack_symbol.txt ABSOLUTE
    attc_send_att_req                        0x0001b611   Thumb Code     0  peripheral_stack_symbol.txt ABSOLUTE
    attc_send_hdl_cfm                        0x0001b63b   Thumb Code     0  peripheral_stack_symbol.txt ABSOLUTE
    attc_send_execute                        0x0001b65b   Thumb Code     0  peripheral_stack_symbol.txt ABSOLUTE
    attc_send_read_ind                       0x0001b67f   Thumb Code     0  peripheral_stack_symbol.txt ABSOLUTE
    attc_l2cc_pdu_recv_handler               0x0001c081   Thumb Code     0  peripheral_stack_symbol.txt ABSOLUTE
    attm_convert_to128                       0x0001c0d9   Thumb Code     0  peripheral_stack_symbol.txt ABSOLUTE
    attm_uuid_comp                           0x0001c109   Thumb Code     0  peripheral_stack_symbol.txt ABSOLUTE
    attm_uuid16_comp                         0x0001c161   Thumb Code     0  peripheral_stack_symbol.txt ABSOLUTE
    attm_is_bt16_uuid                        0x0001c16d   Thumb Code     0  peripheral_stack_symbol.txt ABSOLUTE
    attm_is_bt32_uuid                        0x0001c193   Thumb Code     0  peripheral_stack_symbol.txt ABSOLUTE
    attm_convert_to128_ti                    0x0001c1bb   Thumb Code     0  peripheral_stack_symbol.txt ABSOLUTE
    attm_svc_create_db                       0x0001c1eb   Thumb Code     0  peripheral_stack_symbol.txt ABSOLUTE
    attm_svc_create_db_128                   0x0001c2eb   Thumb Code     0  peripheral_stack_symbol.txt ABSOLUTE
    attm_svc_create_db128                    0x0001c417   Thumb Code     0  peripheral_stack_symbol.txt ABSOLUTE
    attm_reserve_handle_range                0x0001c555   Thumb Code     0  peripheral_stack_symbol.txt ABSOLUTE
    attm_att_set_value                       0x0001c577   Thumb Code     0  peripheral_stack_symbol.txt ABSOLUTE
    attm_get_value                           0x0001c629   Thumb Code     0  peripheral_stack_symbol.txt ABSOLUTE
    attm_att_set_permission                  0x0001c79d   Thumb Code     0  peripheral_stack_symbol.txt ABSOLUTE
    attm_att_update_perm                     0x0001c849   Thumb Code     0  peripheral_stack_symbol.txt ABSOLUTE
    attm_svc_set_permission                  0x0001c8b7   Thumb Code     0  peripheral_stack_symbol.txt ABSOLUTE
    attm_svc_get_permission                  0x0001c8db   Thumb Code     0  peripheral_stack_symbol.txt ABSOLUTE
    attm_init                                0x0001c8f9   Thumb Code     0  peripheral_stack_symbol.txt ABSOLUTE
    attmdb_svc_check_hdl                     0x0001cced   Thumb Code     0  peripheral_stack_symbol.txt ABSOLUTE
    attmdb_add_service                       0x0001cd3f   Thumb Code     0  peripheral_stack_symbol.txt ABSOLUTE
    attmdb_get_service                       0x0001cdbb   Thumb Code     0  peripheral_stack_symbol.txt ABSOLUTE
    attmdb_destroy                           0x0001d0c9   Thumb Code     0  peripheral_stack_symbol.txt ABSOLUTE
    attmdb_get_attribute                     0x0001d12f   Thumb Code     0  peripheral_stack_symbol.txt ABSOLUTE
    attmdb_get_next_att                      0x0001d163   Thumb Code     0  peripheral_stack_symbol.txt ABSOLUTE
    attmdb_uuid16_comp                       0x0001d1d5   Thumb Code     0  peripheral_stack_symbol.txt ABSOLUTE
    attmdb_get_max_len                       0x0001d227   Thumb Code     0  peripheral_stack_symbol.txt ABSOLUTE
    attmdb_get_uuid                          0x0001d291   Thumb Code     0  peripheral_stack_symbol.txt ABSOLUTE
    attmdb_att_get_permission                0x0001d367   Thumb Code     0  peripheral_stack_symbol.txt ABSOLUTE
    atts_clear_read_cache                    0x0001d51d   Thumb Code     0  peripheral_stack_symbol.txt ABSOLUTE
    atts_send_error                          0x0001d685   Thumb Code     0  peripheral_stack_symbol.txt ABSOLUTE
    atts_write_signed_cfm                    0x0001d6a9   Thumb Code     0  peripheral_stack_symbol.txt ABSOLUTE
    atts_send_event                          0x0001d6eb   Thumb Code     0  peripheral_stack_symbol.txt ABSOLUTE
    atts_clear_prep_data                     0x0001d78d   Thumb Code     0  peripheral_stack_symbol.txt ABSOLUTE
    atts_clear_rsp_data                      0x0001d7a9   Thumb Code     0  peripheral_stack_symbol.txt ABSOLUTE
    atts_write_rsp_send                      0x0001d7c5   Thumb Code     0  peripheral_stack_symbol.txt ABSOLUTE
    atts_process_pdu                         0x0001e511   Thumb Code     0  peripheral_stack_symbol.txt ABSOLUTE
    atts_l2cc_pdu_recv_handler               0x0001e577   Thumb Code     0  peripheral_stack_symbol.txt ABSOLUTE
    gattc_update_state                       0x0001e7b3   Thumb Code     0  peripheral_stack_symbol.txt ABSOLUTE
    gattc_get_requester                      0x0001e7d9   Thumb Code     0  peripheral_stack_symbol.txt ABSOLUTE
    gattc_send_complete_evt                  0x0001e7f5   Thumb Code     0  peripheral_stack_symbol.txt ABSOLUTE
    gattc_cleanup                            0x0001e853   Thumb Code     0  peripheral_stack_symbol.txt ABSOLUTE
    gattc_init                               0x0001e8eb   Thumb Code     0  peripheral_stack_symbol.txt ABSOLUTE
    gattc_create                             0x0001e933   Thumb Code     0  peripheral_stack_symbol.txt ABSOLUTE
    gattc_con_enable                         0x0001e9af   Thumb Code     0  peripheral_stack_symbol.txt ABSOLUTE
    gattc_get_mtu                            0x0001ea51   Thumb Code     0  peripheral_stack_symbol.txt ABSOLUTE
    gattc_get_operation_ptr                  0x0001ea5d   Thumb Code     0  peripheral_stack_symbol.txt ABSOLUTE
    gattc_get_operation                      0x0001ea69   Thumb Code     0  peripheral_stack_symbol.txt ABSOLUTE
    gattc_set_mtu                            0x0001ea7f   Thumb Code     0  peripheral_stack_symbol.txt ABSOLUTE
    gattc_send_error_evt                     0x0001eaed   Thumb Code     0  peripheral_stack_symbol.txt ABSOLUTE
    gattc_get_op_seq_num                     0x0001eb13   Thumb Code     0  peripheral_stack_symbol.txt ABSOLUTE
    gattc_set_operation_ptr                  0x0001eb29   Thumb Code     0  peripheral_stack_symbol.txt ABSOLUTE
    gattc_reschedule_operation               0x0001eb45   Thumb Code     0  peripheral_stack_symbol.txt ABSOLUTE
    gattm_init                               0x000200fb   Thumb Code     0  peripheral_stack_symbol.txt ABSOLUTE
    gattm_init_attr                          0x00020123   Thumb Code     0  peripheral_stack_symbol.txt ABSOLUTE
    gattm_create                             0x0002014f   Thumb Code     0  peripheral_stack_symbol.txt ABSOLUTE
    gattm_cleanup                            0x00020157   Thumb Code     0  peripheral_stack_symbol.txt ABSOLUTE
    l2cc_update_state                        0x00020235   Thumb Code     0  peripheral_stack_symbol.txt ABSOLUTE
    l2cc_cleanup                             0x000202a1   Thumb Code     0  peripheral_stack_symbol.txt ABSOLUTE
    l2cc_init                                0x0002036d   Thumb Code     0  peripheral_stack_symbol.txt ABSOLUTE
    l2cc_create                              0x000203b5   Thumb Code     0  peripheral_stack_symbol.txt ABSOLUTE
    l2cc_get_operation                       0x000203ff   Thumb Code     0  peripheral_stack_symbol.txt ABSOLUTE
    l2cc_get_operation_ptr                   0x00020413   Thumb Code     0  peripheral_stack_symbol.txt ABSOLUTE
    l2cc_set_operation_ptr                   0x0002041f   Thumb Code     0  peripheral_stack_symbol.txt ABSOLUTE
    l2cc_data_send                           0x0002042b   Thumb Code     0  peripheral_stack_symbol.txt ABSOLUTE
    l2cc_lecb_h2l_err                        0x00020699   Thumb Code     0  peripheral_stack_symbol.txt ABSOLUTE
    l2cc_lecb_find                           0x000206d3   Thumb Code     0  peripheral_stack_symbol.txt ABSOLUTE
    l2cc_lecb_free                           0x0002070f   Thumb Code     0  peripheral_stack_symbol.txt ABSOLUTE
    l2cc_lecb_init_disconnect                0x000207b3   Thumb Code     0  peripheral_stack_symbol.txt ABSOLUTE
    l2cc_lecb_send_con_req                   0x000207e3   Thumb Code     0  peripheral_stack_symbol.txt ABSOLUTE
    l2cc_lecb_send_con_rsp                   0x0002081f   Thumb Code     0  peripheral_stack_symbol.txt ABSOLUTE
    l2cc_lecb_send_disc_req                  0x0002084f   Thumb Code     0  peripheral_stack_symbol.txt ABSOLUTE
    l2cc_lecb_send_disc_rsp                  0x0002087f   Thumb Code     0  peripheral_stack_symbol.txt ABSOLUTE
    l2cc_lecb_send_credit_add                0x000208a3   Thumb Code     0  peripheral_stack_symbol.txt ABSOLUTE
    l2cc_lecb_pdu_pack                       0x000208d5   Thumb Code     0  peripheral_stack_symbol.txt ABSOLUTE
    l2cc_lecb_pdu_unpack                     0x00020939   Thumb Code     0  peripheral_stack_symbol.txt ABSOLUTE
    l2cc_pdu_pack                            0x000209b5   Thumb Code     0  peripheral_stack_symbol.txt ABSOLUTE
    l2cc_pdu_unpack                          0x00020c4d   Thumb Code     0  peripheral_stack_symbol.txt ABSOLUTE
    l2cc_pdu_header_check                    0x00020fab   Thumb Code     0  peripheral_stack_symbol.txt ABSOLUTE
    l2cc_sig_send_cmd_reject                 0x0002124d   Thumb Code     0  peripheral_stack_symbol.txt ABSOLUTE
    l2cc_sig_pdu_recv_handler                0x0002172d   Thumb Code     0  peripheral_stack_symbol.txt ABSOLUTE
    l2cc_process_op                          0x0002177d   Thumb Code     0  peripheral_stack_symbol.txt ABSOLUTE
    l2cc_pdu_alloc                           0x00021ecf   Thumb Code     0  peripheral_stack_symbol.txt ABSOLUTE
    l2cc_pdu_send                            0x00021ef9   Thumb Code     0  peripheral_stack_symbol.txt ABSOLUTE
    l2cm_init                                0x00021f5f   Thumb Code     0  peripheral_stack_symbol.txt ABSOLUTE
    l2cm_create                              0x00021f91   Thumb Code     0  peripheral_stack_symbol.txt ABSOLUTE
    l2cm_tx_status                           0x00021f99   Thumb Code     0  peripheral_stack_symbol.txt ABSOLUTE
    l2cm_cleanup                             0x00021fc3   Thumb Code     0  peripheral_stack_symbol.txt ABSOLUTE
    l2cm_set_link_layer_buff_size            0x00021fd7   Thumb Code     0  peripheral_stack_symbol.txt ABSOLUTE
    l2cm_get_nb_buffer_available             0x00021fe1   Thumb Code     0  peripheral_stack_symbol.txt ABSOLUTE
    rwble_hl_init                            0x00021ff1   Thumb Code     0  peripheral_stack_symbol.txt ABSOLUTE
    __aeabi_uidiv                            0x0002200d   Thumb Code     0  peripheral_stack_symbol.txt ABSOLUTE
    __aeabi_uidivmod                         0x0002200d   Thumb Code     0  peripheral_stack_symbol.txt ABSOLUTE
    __aeabi_idiv                             0x00022039   Thumb Code     0  peripheral_stack_symbol.txt ABSOLUTE
    __aeabi_idivmod                          0x00022039   Thumb Code     0  peripheral_stack_symbol.txt ABSOLUTE
    rand                                     0x00022061   Thumb Code     0  peripheral_stack_symbol.txt ABSOLUTE
    srand                                    0x00022073   Thumb Code     0  peripheral_stack_symbol.txt ABSOLUTE
    __aeabi_memcpy                           0x00022085   Thumb Code     0  peripheral_stack_symbol.txt ABSOLUTE
    __aeabi_memcpy4                          0x00022085   Thumb Code     0  peripheral_stack_symbol.txt ABSOLUTE
    __aeabi_memset                           0x000220c5   Thumb Code     0  peripheral_stack_symbol.txt ABSOLUTE
    __aeabi_memclr                           0x000220d5   Thumb Code     0  peripheral_stack_symbol.txt ABSOLUTE
    __aeabi_memclr4                          0x000220d5   Thumb Code     0  peripheral_stack_symbol.txt ABSOLUTE
    __aeabi_memclr8                          0x000220d5   Thumb Code     0  peripheral_stack_symbol.txt ABSOLUTE
    memcmp                                   0x000220eb   Thumb Code     0  peripheral_stack_symbol.txt ABSOLUTE
    __ARM_clz                                0x00022104   ARM Code       0  peripheral_stack_symbol.txt ABSOLUTE
    __ARM_common_disable_fiq                 0x0002210c   ARM Code       0  peripheral_stack_symbol.txt ABSOLUTE
    __ARM_common_disable_irq                 0x00022120   ARM Code       0  peripheral_stack_symbol.txt ABSOLUTE
    __ARM_common_enable_fiq                  0x00022134   ARM Code       0  peripheral_stack_symbol.txt ABSOLUTE
    __ARM_common_enable_irq                  0x00022144   ARM Code       0  peripheral_stack_symbol.txt ABSOLUTE
    __ARM_common_switch8                     0x00022160   ARM Code       0  peripheral_stack_symbol.txt ABSOLUTE
    LLM_AA_CT2                               0x00022e60   Data           0  peripheral_stack_symbol.txt ABSOLUTE
    LLM_AA_CT1                               0x00022e62   Data           0  peripheral_stack_symbol.txt ABSOLUTE
    hci_cmd_desc_tab_lk_ctrl                 0x00023148   Data           0  peripheral_stack_symbol.txt ABSOLUTE
    hci_cmd_desc_tab_ctrl_bb                 0x00023160   Data           0  peripheral_stack_symbol.txt ABSOLUTE
    hci_cmd_desc_tab_info_par                0x000231cc   Data           0  peripheral_stack_symbol.txt ABSOLUTE
    hci_cmd_desc_tab_stat_par                0x000231fc   Data           0  peripheral_stack_symbol.txt ABSOLUTE
    hci_cmd_desc_tab_le                      0x00023208   Data           0  peripheral_stack_symbol.txt ABSOLUTE
    hci_cmd_desc_tab_vs                      0x00023610   Data           0  peripheral_stack_symbol.txt ABSOLUTE
    hci_cmd_desc_root_tab                    0x00023640   Data           0  peripheral_stack_symbol.txt ABSOLUTE
    hci_evt_desc_tab                         0x00023670   Data           0  peripheral_stack_symbol.txt ABSOLUTE
    hci_evt_le_desc_tab                      0x000236b8   Data           0  peripheral_stack_symbol.txt ABSOLUTE
    one_bits                                 0x000237dd   Data           0  peripheral_stack_symbol.txt ABSOLUTE
    co_sca2ppm                               0x000237ee   Data           0  peripheral_stack_symbol.txt ABSOLUTE
    co_null_bdaddr                           0x000237fe   Data           0  peripheral_stack_symbol.txt ABSOLUTE
    rwip_priority                            0x0002382f   Data           0  peripheral_stack_symbol.txt ABSOLUTE
    gapc_sig_handlers                        0x0002392c   Data           0  peripheral_stack_symbol.txt ABSOLUTE
    attc_handlers                            0x00023da4   Data           0  peripheral_stack_symbol.txt ABSOLUTE
    atts_handlers                            0x00023e48   Data           0  peripheral_stack_symbol.txt ABSOLUTE
    l2cc_sig_handlers                        0x00024134   Data           0  peripheral_stack_symbol.txt ABSOLUTE
    boot_stack_base_UNUSED                   0x00025b64   Data           4  boot_handlers.o(SYS_BOOT)
    boot_stack_len_UNUSED                    0x00025b68   Data           4  boot_handlers.o(SYS_BOOT)
    boot_stack_base_IRQ                      0x00025b6c   Data           4  boot_handlers.o(SYS_BOOT)
    boot_stack_len_IRQ                       0x00025b70   Data           4  boot_handlers.o(SYS_BOOT)
    boot_stack_base_SVC                      0x00025b74   Data           4  boot_handlers.o(SYS_BOOT)
    boot_stack_len_SVC                       0x00025b78   Data           4  boot_handlers.o(SYS_BOOT)
    boot_stack_base_FIQ                      0x00025b7c   Data           4  boot_handlers.o(SYS_BOOT)
    boot_stack_len_FIQ                       0x00025b80   Data           4  boot_handlers.o(SYS_BOOT)
    sys_Reset                                0x00025b84   ARM Code       0  boot_handlers.o(SYS_BOOT)
    Long ARM to Thumb Veneer to Undefined_Exception 0x00025d50   ARM Code       8  anon$$obj.o(Veneer$$Code)
    Long ARM to Thumb Veneer to SoftwareInterrupt_Exception 0x00025d58   ARM Code       8  anon$$obj.o(Veneer$$Code)
    Long ARM to Thumb Veneer to PrefetchAbort_Exception 0x00025d60   ARM Code       8  anon$$obj.o(Veneer$$Code)
    Long ARM to Thumb Veneer to DataAbort_Exception 0x00025d68   ARM Code       8  anon$$obj.o(Veneer$$Code)
    Long ARM to Thumb Veneer to Reserved_Exception 0x00025d70   ARM Code       8  anon$$obj.o(Veneer$$Code)
    SYSirq_FIQ_Handler                       0x00025e00   ARM Code      16  intc.o(sys_fiq_entry)
    SYSirq_IRQ_Handler                       0x00025e20   ARM Code      16  intc.o(sys_irq_entry)
    __main                                   0x00025e30   ARM Code       8  __main.o(!!!main)
    __scatterload                            0x00025e38   ARM Code       0  __scatter.o(!!!scatter)
    __scatterload_rt2                        0x00025e38   ARM Code      52  __scatter.o(!!!scatter)
    __scatterload_null                       0x00025e4c   ARM Code       0  __scatter.o(!!!scatter)
    __scatterload_copy                       0x00025e74   ARM Code      40  __scatter_copy.o(!!handler_copy)
    __scatterload_zeroinit                   0x00025e9c   ARM Code      44  __scatter_zi.o(!!handler_zi)
    _printf_n                                0x00025ec8   ARM Code       0  _printf_n.o(.ARM.Collect$$_printf_percent$$00000001)
    _printf_percent                          0x00025ec8   ARM Code       0  _printf_percent.o(.ARM.Collect$$_printf_percent$$00000000)
    _printf_p                                0x00025ed0   ARM Code       0  _printf_p.o(.ARM.Collect$$_printf_percent$$00000002)
    _printf_f                                0x00025ed8   ARM Code       0  _printf_f.o(.ARM.Collect$$_printf_percent$$00000003)
    _printf_e                                0x00025ee0   ARM Code       0  _printf_e.o(.ARM.Collect$$_printf_percent$$00000004)
    _printf_g                                0x00025ee8   ARM Code       0  _printf_g.o(.ARM.Collect$$_printf_percent$$00000005)
    _printf_a                                0x00025ef0   ARM Code       0  _printf_a.o(.ARM.Collect$$_printf_percent$$00000006)
    _printf_ll                               0x00025ef8   ARM Code       0  _printf_ll.o(.ARM.Collect$$_printf_percent$$00000007)
    _printf_i                                0x00025f04   ARM Code       0  _printf_i.o(.ARM.Collect$$_printf_percent$$00000008)
    _printf_d                                0x00025f0c   ARM Code       0  _printf_d.o(.ARM.Collect$$_printf_percent$$00000009)
    _printf_u                                0x00025f14   ARM Code       0  _printf_u.o(.ARM.Collect$$_printf_percent$$0000000A)
    _printf_o                                0x00025f1c   ARM Code       0  _printf_o.o(.ARM.Collect$$_printf_percent$$0000000B)
    _printf_x                                0x00025f24   ARM Code       0  _printf_x.o(.ARM.Collect$$_printf_percent$$0000000C)
    _printf_lli                              0x00025f2c   ARM Code       0  _printf_lli.o(.ARM.Collect$$_printf_percent$$0000000D)
    _printf_lld                              0x00025f34   ARM Code       0  _printf_lld.o(.ARM.Collect$$_printf_percent$$0000000E)
    _printf_llu                              0x00025f3c   ARM Code       0  _printf_llu.o(.ARM.Collect$$_printf_percent$$0000000F)
    _printf_llo                              0x00025f44   ARM Code       0  _printf_llo.o(.ARM.Collect$$_printf_percent$$00000010)
    _printf_llx                              0x00025f4c   ARM Code       0  _printf_llx.o(.ARM.Collect$$_printf_percent$$00000011)
    _printf_l                                0x00025f54   ARM Code       0  _printf_l.o(.ARM.Collect$$_printf_percent$$00000012)
    _printf_c                                0x00025f60   ARM Code       0  _printf_c.o(.ARM.Collect$$_printf_percent$$00000013)
    _printf_s                                0x00025f68   ARM Code       0  _printf_s.o(.ARM.Collect$$_printf_percent$$00000014)
    _printf_lc                               0x00025f70   ARM Code       0  _printf_lc.o(.ARM.Collect$$_printf_percent$$00000015)
    _printf_ls                               0x00025f78   ARM Code       0  _printf_ls.o(.ARM.Collect$$_printf_percent$$00000016)
    _printf_percent_end                      0x00025f80   ARM Code       0  _printf_percent_end.o(.ARM.Collect$$_printf_percent$$00000017)
    __rt_lib_init                            0x00025f89   Thumb Code     0  libinit.o(.ARM.Collect$$libinit$$00000000)
    __rt_lib_init_fp_1                       0x00025f8b   Thumb Code     0  libinit2.o(.ARM.Collect$$libinit$$00000002)
    __rt_lib_init_heap_1                     0x00025f8b   Thumb Code     0  libinit2.o(.ARM.Collect$$libinit$$0000000A)
    __rt_lib_init_lc_common                  0x00025f8b   Thumb Code     0  libinit2.o(.ARM.Collect$$libinit$$0000000F)
    __rt_lib_init_preinit_1                  0x00025f8b   Thumb Code     0  libinit2.o(.ARM.Collect$$libinit$$00000004)
    __rt_lib_init_rand_1                     0x00025f8b   Thumb Code     0  libinit2.o(.ARM.Collect$$libinit$$0000000E)
    __rt_lib_init_user_alloc_1               0x00025f8b   Thumb Code     0  libinit2.o(.ARM.Collect$$libinit$$0000000C)
    __rt_lib_init_lc_collate_1               0x00025f91   Thumb Code     0  libinit2.o(.ARM.Collect$$libinit$$00000011)
    __rt_lib_init_lc_ctype_2                 0x00025f91   Thumb Code     0  libinit2.o(.ARM.Collect$$libinit$$00000012)
    __rt_lib_init_lc_ctype_1                 0x00025f9d   Thumb Code     0  libinit2.o(.ARM.Collect$$libinit$$00000013)
    __rt_lib_init_lc_monetary_1              0x00025f9d   Thumb Code     0  libinit2.o(.ARM.Collect$$libinit$$00000015)
    __rt_lib_init_lc_numeric_2               0x00025f9d   Thumb Code     0  libinit2.o(.ARM.Collect$$libinit$$00000016)
    __rt_lib_init_alloca_1                   0x00025fa7   Thumb Code     0  libinit2.o(.ARM.Collect$$libinit$$0000002E)
    __rt_lib_init_argv_1                     0x00025fa7   Thumb Code     0  libinit2.o(.ARM.Collect$$libinit$$0000002C)
    __rt_lib_init_atexit_1                   0x00025fa7   Thumb Code     0  libinit2.o(.ARM.Collect$$libinit$$0000001B)
    __rt_lib_init_clock_1                    0x00025fa7   Thumb Code     0  libinit2.o(.ARM.Collect$$libinit$$00000021)
    __rt_lib_init_cpp_1                      0x00025fa7   Thumb Code     0  libinit2.o(.ARM.Collect$$libinit$$00000032)
    __rt_lib_init_exceptions_1               0x00025fa7   Thumb Code     0  libinit2.o(.ARM.Collect$$libinit$$00000030)
    __rt_lib_init_fp_trap_1                  0x00025fa7   Thumb Code     0  libinit2.o(.ARM.Collect$$libinit$$0000001F)
    __rt_lib_init_getenv_1                   0x00025fa7   Thumb Code     0  libinit2.o(.ARM.Collect$$libinit$$00000023)
    __rt_lib_init_lc_numeric_1               0x00025fa7   Thumb Code     0  libinit2.o(.ARM.Collect$$libinit$$00000017)
    __rt_lib_init_lc_time_1                  0x00025fa7   Thumb Code     0  libinit2.o(.ARM.Collect$$libinit$$00000019)
    __rt_lib_init_return                     0x00025fa7   Thumb Code     0  libinit2.o(.ARM.Collect$$libinit$$00000033)
    __rt_lib_init_signal_1                   0x00025fa7   Thumb Code     0  libinit2.o(.ARM.Collect$$libinit$$0000001D)
    __rt_lib_init_stdio_1                    0x00025fa7   Thumb Code     0  libinit2.o(.ARM.Collect$$libinit$$00000025)
    __rt_lib_shutdown                        0x00025fa9   Thumb Code     0  libshutdown.o(.ARM.Collect$$libshutdown$$00000000)
    __rt_lib_shutdown_cpp_1                  0x00025fab   Thumb Code     0  libshutdown2.o(.ARM.Collect$$libshutdown$$00000002)
    __rt_lib_shutdown_fp_trap_1              0x00025fab   Thumb Code     0  libshutdown2.o(.ARM.Collect$$libshutdown$$00000007)
    __rt_lib_shutdown_heap_1                 0x00025fab   Thumb Code     0  libshutdown2.o(.ARM.Collect$$libshutdown$$0000000F)
    __rt_lib_shutdown_return                 0x00025fab   Thumb Code     0  libshutdown2.o(.ARM.Collect$$libshutdown$$00000010)
    __rt_lib_shutdown_signal_1               0x00025fab   Thumb Code     0  libshutdown2.o(.ARM.Collect$$libshutdown$$0000000A)
    __rt_lib_shutdown_stdio_1                0x00025fab   Thumb Code     0  libshutdown2.o(.ARM.Collect$$libshutdown$$00000004)
    __rt_lib_shutdown_user_alloc_1           0x00025fab   Thumb Code     0  libshutdown2.o(.ARM.Collect$$libshutdown$$0000000C)
    __rt_entry                               0x00025fac   ARM Code       0  __rtentry.o(.ARM.Collect$$rtentry$$00000000)
    __rt_entry_presh_1                       0x00025fac   ARM Code       0  __rtentry2.o(.ARM.Collect$$rtentry$$00000002)
    __rt_entry_sh                            0x00025fac   ARM Code       0  __rtentry5.o(.ARM.Collect$$rtentry$$00000005)
    __rt_entry_li                            0x00025fb0   ARM Code       0  __rtentry2.o(.ARM.Collect$$rtentry$$0000000A)
    __rt_entry_postsh_1                      0x00025fb0   ARM Code       0  __rtentry2.o(.ARM.Collect$$rtentry$$00000009)
    __rt_entry_main                          0x00025fb4   ARM Code       0  __rtentry2.o(.ARM.Collect$$rtentry$$0000000D)
    __rt_entry_postli_1                      0x00025fb4   ARM Code       0  __rtentry2.o(.ARM.Collect$$rtentry$$0000000C)
    __rt_exit                                0x00025fe0   ARM Code       0  rtexit.o(.ARM.Collect$$rtexit$$00000000)
    __rt_exit_ls                             0x00025fe4   ARM Code       0  rtexit2.o(.ARM.Collect$$rtexit$$00000003)
    __rt_exit_prels_1                        0x00025fe4   ARM Code       0  rtexit2.o(.ARM.Collect$$rtexit$$00000002)
    __rt_exit_exit                           0x00025fe8   ARM Code       0  rtexit2.o(.ARM.Collect$$rtexit$$00000004)
    Inline ARM to Thumb Veneer to main       0x00025ff0   ARM Code       8  main.o(.text)
    platform_reset                           0x00025ff9   Thumb Code    24  main.o(.text)
    bdaddr_env_init                          0x00026011   Thumb Code    74  main.o(.text)
    main                                     0x0002605b   Thumb Code   248  main.o(.text)
    rwip_eif_get                             0x00026153   Thumb Code    12  main.o(.text)
    appm_init                                0x00026331   Thumb Code   136  app.o(.text)
    appm_add_svc                             0x000263b9   Thumb Code    44  app.o(.text)
    appm_disconnect                          0x000263e5   Thumb Code    34  app.o(.text)
    appm_delete_advertising                  0x00026407   Thumb Code    30  app.o(.text)
    appm_adv_fsm_next                        0x00026425   Thumb Code   224  app.o(.text)
    appm_update_param                        0x00026505   Thumb Code    56  app.o(.text)
    appm_get_dev_name                        0x0002653d   Thumb Code    18  app.o(.text)
    appm_update_adv_state                    0x0002654f   Thumb Code     2  app.o(.text)
    app_batt_init                            0x00026611   Thumb Code    12  app_batt.o(.text)
    app_batt_add_bas                         0x0002661d   Thumb Code    44  app_batt.o(.text)
    app_batt_enable_prf                      0x00026649   Thumb Code    44  app_batt.o(.text)
    app_batt_send_lvl                        0x00026675   Thumb Code    34  app_batt.o(.text)
    app_dis_init                             0x00026731   Thumb Code     2  app_dis.o(.text)
    app_dis_add_dis                          0x00026733   Thumb Code    42  app_dis.o(.text)
    app_oads_init                            0x000267c9   Thumb Code     8  app_oads.o(.text)
    app_oad_add_oads                         0x000267d1   Thumb Code    62  app_oads.o(.text)
    app_oads_enable_prf                      0x0002680f   Thumb Code    42  app_oads.o(.text)
    app_ffc1_ntf_req                         0x00026889   Thumb Code    44  app_oads.o(.text)
    app_ffc2_ntf_req                         0x000268b5   Thumb Code    46  app_oads.o(.text)
    app_sec_init                             0x00026981   Thumb Code    46  app_sec.o(.text)
    app_sec_get_bond_status                  0x000269af   Thumb Code     6  app_sec.o(.text)
    app_sec_remove_bond                      0x000269b5   Thumb Code    32  app_sec.o(.text)
    app_sec_send_security_req                0x000269d5   Thumb Code    66  app_sec.o(.text)
    app_ancsc_init                           0x00027601   Thumb Code    18  app_ancsc.o(.text)
    app_ancs_add_ancsc                       0x00027613   Thumb Code    50  app_ancsc.o(.text)
    app_ancsc_enable_prf                     0x00027645   Thumb Code    50  app_ancsc.o(.text)
    app_ancsc_delete_call                    0x000277a1   Thumb Code    74  app_ancsc.o(.text)
    rwble_init                               0x00027ab1   Thumb Code    96  rwble.o(.text)
    rwble_isr                                0x00027b11   Thumb Code    46  rwble.o(.text)
    rwble_sleep_enter                        0x00027b3f   Thumb Code    18  rwble.o(.text)
    rwble_sleep_wakeup_end                   0x00027b51   Thumb Code    10  rwble.o(.text)
    rwip_init                                0x00027be5   Thumb Code   216  rwip.o(.text)
    rwip_reset                               0x00027cbd   Thumb Code   108  rwip.o(.text)
    rwip_schedule                            0x00027d29   Thumb Code    16  rwip.o(.text)
    rwip_isr                                 0x00027d39   Thumb Code   124  rwip.o(.text)
    rwip_sleep                               0x00027db5   Thumb Code   262  rwip.o(.text)
    nvds_init                                0x00027ff3   Thumb Code    60  nvds.o(.text)
    nvds_get                                 0x0002802f   Thumb Code    62  nvds.o(.text)
    nvds_del                                 0x0002806d   Thumb Code    52  nvds.o(.text)
    nvds_lock                                0x000280a1   Thumb Code    44  nvds.o(.text)
    nvds_put                                 0x000280cd   Thumb Code   214  nvds.o(.text)
    prf_pack_char_pres_fmt                   0x00028271   Thumb Code    30  prf_utils.o(.text)
    prf_read_char_send                       0x0002828f   Thumb Code    46  prf_utils.o(.text)
    prf_register_atthdl2gatt                 0x000282bd   Thumb Code    52  prf_utils.o(.text)
    prf_unregister_atthdl2gatt               0x000282f1   Thumb Code    52  prf_utils.o(.text)
    prf_disc_svc_send                        0x00028325   Thumb Code    58  prf_utils.o(.text)
    prf_disc_svc_send_uuid128                0x0002835f   Thumb Code    64  prf_utils.o(.text)
    prf_gatt_write                           0x0002839f   Thumb Code    82  prf_utils.o(.text)
    prf_gatt_write_ntf_ind                   0x000283f1   Thumb Code    26  prf_utils.o(.text)
    prf_check_svc_char_validity              0x0002840b   Thumb Code    66  prf_utils.o(.text)
    prf_check_svc_char_desc_validity         0x0002844d   Thumb Code    58  prf_utils.o(.text)
    prf_extract_svc_info                     0x00028487   Thumb Code   296  prf_utils.o(.text)
    prf_client_att_info_rsp                  0x000285af   Thumb Code    86  prf_utils.o(.text)
    prf_pack_date_time                       0x00028605   Thumb Code    32  prf_utils.o(.text)
    prf_unpack_date_time                     0x00028625   Thumb Code    34  prf_utils.o(.text)
    prf_init                                 0x0002868b   Thumb Code   116  prf.o(.text)
    prf_add_profile                          0x000286ff   Thumb Code   130  prf.o(.text)
    prf_create                               0x00028781   Thumb Code    44  prf.o(.text)
    prf_cleanup                              0x000287ad   Thumb Code    48  prf.o(.text)
    prf_env_get                              0x000287dd   Thumb Code    44  prf.o(.text)
    prf_src_task_get                         0x00028809   Thumb Code    16  prf.o(.text)
    prf_dst_task_get                         0x00028819   Thumb Code    16  prf.o(.text)
    prf_get_id_from_task                     0x00028829   Thumb Code    52  prf.o(.text)
    prf_get_task_from_id                     0x0002885d   Thumb Code    52  prf.o(.text)
    set_flash_clk                            0x000288a9   Thumb Code    40  flash.o(.text)
    get_flash_ID                             0x000288d1   Thumb Code    34  flash.o(.text)
    flash_read_sr                            0x000288f3   Thumb Code    26  flash.o(.text)
    flash_write_sr                           0x0002890d   Thumb Code   168  flash.o(.text)
    flash_wp_256k                            0x000289b5   Thumb Code    70  flash.o(.text)
    flash_wp_ALL                             0x000289fb   Thumb Code    70  flash.o(.text)
    flash_advance_init                       0x00028a41   Thumb Code   110  flash.o(.text)
    clr_flash_qwfr                           0x00028aaf   Thumb Code    76  flash.o(.text)
    flash_set_dual_mode                      0x00028afb   Thumb Code    32  flash.o(.text)
    flash_init                               0x00028b1b   Thumb Code    18  flash.o(.text)
    flash_set_line_mode                      0x00028b2d   Thumb Code     2  flash.o(.text)
    flash_erase_sector                       0x00028b2f   Thumb Code    78  flash.o(.text)
    flash_read_data                          0x00028b7d   Thumb Code   166  flash.o(.text)
    flash_write_data                         0x00028c23   Thumb Code   346  flash.o(.text)
    flash_set_qe                             0x00028d7d   Thumb Code    68  flash.o(.text)
    flash_read                               0x00028dc1   Thumb Code    46  flash.o(.text)
    flash_write                              0x00028def   Thumb Code   102  flash.o(.text)
    flash_erase                              0x00028e55   Thumb Code    66  flash.o(.text)
    flash_test                               0x00028e97   Thumb Code   196  flash.o(.text)
    Delay_ms                                 0x00029019   Thumb Code    26  rf_xvr.o(.text)
    CLK32K_AutoCali_init                     0x00029033   Thumb Code    70  rf_xvr.o(.text)
    kmod_calibration                         0x00029079   Thumb Code   318  rf_xvr.o(.text)
    xvr_reg_initial                          0x000291b7   Thumb Code   382  rf_xvr.o(.text)
    rf_init                                  0x00029335   Thumb Code   758  rf_xvr.o(.text)
    Delay_us                                 0x0002962b   Thumb Code    20  rf_xvr.o(.text)
    Delay                                    0x0002963f   Thumb Code    20  rf_xvr.o(.text)
    bk3435_singleWaveCfg                     0x00029653   Thumb Code    36  rf_xvr.o(.text)
    bk3435_set_power                         0x00029677   Thumb Code    48  rf_xvr.o(.text)
    gpio_config                              0x000298b1   Thumb Code    84  gpio.o(.text)
    gpio_get_input                           0x00029905   Thumb Code    24  gpio.o(.text)
    gpio_set                                 0x0002991d   Thumb Code    34  gpio.o(.text)
    gpio_set_neg                             0x0002993f   Thumb Code    26  gpio.o(.text)
    gpio_set_int_mode                        0x00029959   Thumb Code    72  gpio.o(.text)
    gpio_init                                0x000299a1   Thumb Code    44  gpio.o(.text)
    gpio_triger                              0x000299cd   Thumb Code    20  gpio.o(.text)
    gpio_cb_register                         0x000299e1   Thumb Code    10  gpio.o(.text)
    gpio_isr                                 0x000299eb   Thumb Code    22  gpio.o(.text)
    gpio_sleep                               0x00029a01   Thumb Code     2  gpio.o(.text)
    gpio_wakeup                              0x00029a03   Thumb Code     2  gpio.o(.text)
    DEBUG_MSG                                0x00029a05   Thumb Code     2  gpio.o(.text)
    spi_init                                 0x00029a15   Thumb Code   110  spi.o(.text)
    spi_waitbusying                          0x00029a83   Thumb Code    24  spi.o(.text)
    spi_write_read                           0x00029a9b   Thumb Code   124  spi.o(.text)
    spi_write                                0x00029b17   Thumb Code    72  spi.o(.text)
    spi_read                                 0x00029b5f   Thumb Code   116  spi.o(.text)
    spi_send                                 0x00029bd3   Thumb Code    40  spi.o(.text)
    spi_receiv                               0x00029bfb   Thumb Code    40  spi.o(.text)
    spi_isr                                  0x00029c23   Thumb Code   102  spi.o(.text)
    spi_send_state_get                       0x00029c89   Thumb Code     6  spi.o(.text)
    spi_dma_write                            0x00029c8f   Thumb Code    48  spi.o(.text)
    spi_dma_read                             0x00029cbf   Thumb Code    48  spi.o(.text)
    spi_result_callback                      0x00029cef   Thumb Code    10  spi.o(.text)
    spi_master_test                          0x00029cf9   Thumb Code    48  spi.o(.text)
    icu_init                                 0x00029da5   Thumb Code    48  icu.o(.text)
    system_sleep_init                        0x00029dd5   Thumb Code    18  icu.o(.text)
    icu_get_sleep_mode                       0x00029de7   Thumb Code     6  icu.o(.text)
    icu_set_sleep_mode                       0x00029ded   Thumb Code     6  icu.o(.text)
    cpu_reduce_voltage_sleep                 0x00029df3   Thumb Code   130  icu.o(.text)
    cpu_wakeup                               0x00029e75   Thumb Code    94  icu.o(.text)
    cpu_idle_sleep                           0x00029ed3   Thumb Code    28  icu.o(.text)
    mcu_clk_switch                           0x00029eef   Thumb Code   248  icu.o(.text)
    deep_sleep                               0x00029fe7   Thumb Code    24  icu.o(.text)
    cpu_reset                                0x00029fff   Thumb Code    34  icu.o(.text)
    wdt_disable                              0x0002a041   Thumb Code    16  wdt.o(.text)
    wdt_enable                               0x0002a051   Thumb Code    18  wdt.o(.text)
    wdt_feed                                 0x0002a063   Thumb Code    12  wdt.o(.text)
    uart2_init                               0x0002a075   Thumb Code    84  uart2.o(.text)
    uart2_send                               0x0002a0c9   Thumb Code    24  uart2.o(.text)
    clear_uart2_buffer                       0x0002a0e1   Thumb Code    30  uart2.o(.text)
    uart2_printf                             0x0002a0ff   Thumb Code    38  uart2.o(.text)
    uart2_isr                                0x0002a125   Thumb Code    60  uart2.o(.text)
    uart_init                                0x0002a179   Thumb Code   104  uart.o(.text)
    uart_send                                0x0002a1e1   Thumb Code    32  uart.o(.text)
    uart0_printf                             0x0002a201   Thumb Code    40  uart.o(.text)
    uart_flow_on                             0x0002a229   Thumb Code     2  uart.o(.text)
    uart_flow_off                            0x0002a22b   Thumb Code     4  uart.o(.text)
    uart_read                                0x0002a22f   Thumb Code    22  uart.o(.text)
    uart_write                               0x0002a245   Thumb Code    22  uart.o(.text)
    uart_rx_cmd_handler                      0x0002a25b   Thumb Code    90  uart.o(.text)
    uart_rx_handler                          0x0002a2b5   Thumb Code    96  uart.o(.text)
    uart_isr                                 0x0002a315   Thumb Code    76  uart.o(.text)
    uart_rx_cmd_respone                      0x0002a361   Thumb Code    58  uart.o(.text)
    uart_download_check                      0x0002a39b   Thumb Code     8  uart.o(.text)
    aon_rtc_init                             0x0002a3c1   Thumb Code    60  aon_rtc.o(.text)
    aon_rtc_isr                              0x0002a3fd   Thumb Code    28  aon_rtc.o(.text)
    intc_spurious                            0x0002a435   Thumb Code     2  intc.o(.text)
    intc_init                                0x0002a437   Thumb Code    62  intc.o(.text)
    intc_irq                                 0x0002a475   Thumb Code    74  intc.o(.text)
    intc_fiq                                 0x0002a4bf   Thumb Code    50  intc.o(.text)
    dma_config_write                         0x0002a4f5   Thumb Code    48  dma.o(.text)
    dma_config_read                          0x0002a525   Thumb Code    48  dma.o(.text)
    dma_isr_stat_get                         0x0002a555   Thumb Code     6  dma.o(.text)
    dma_isr_stat_set                         0x0002a55b   Thumb Code     6  dma.o(.text)
    dma_isr                                  0x0002a561   Thumb Code     2  dma.o(.text)
    diss_compute_cfg_flag                    0x0002a571   Thumb Code    40  diss.o(.text)
    diss_prf_itf_get                         0x0002a63f   Thumb Code     6  diss.o(.text)
    diss_handle_to_value                     0x0002a645   Thumb Code    54  diss.o(.text)
    diss_value_to_handle                     0x0002a67b   Thumb Code    60  diss.o(.text)
    diss_check_val_len                       0x0002a6b7   Thumb Code    42  diss.o(.text)
    diss_task_init                           0x0002a8af   Thumb Code    28  diss_task.o(.text)
    bass_get_att_handle                      0x0002aa55   Thumb Code   122  bass.o(.text)
    bass_prf_itf_get                         0x0002ab0f   Thumb Code     6  bass.o(.text)
    bass_get_att_idx                         0x0002ab15   Thumb Code   112  bass.o(.text)
    bass_exe_operation                       0x0002ab85   Thumb Code   238  bass.o(.text)
    bass_task_init                           0x0002af1f   Thumb Code    28  bass_task.o(.text)
    ancsc_prf_itf_get                        0x0002b00b   Thumb Code     4  ancsc.o(.text)
    ancsc_enable_rsp_send                    0x0002b00f   Thumb Code    78  ancsc.o(.text)
    ancsc_task_init                          0x0002b519   Thumb Code    28  ancsc_task.o(.text)
    oad_save_reciveData                      0x0002b639   Thumb Code    32  oads.o(.text)
    oad_updating_user_section_begin          0x0002b659   Thumb Code    38  oads.o(.text)
    oad_updating_user_section_pro            0x0002b67f   Thumb Code   134  oads.o(.text)
    oad_updating_user_section_end            0x0002b705   Thumb Code    18  oads.o(.text)
    oadImgIdentifyWrite                      0x0002b7f9   Thumb Code   786  oads.o(.text)
    oadImgBlockWrite                         0x0002bb0b   Thumb Code   364  oads.o(.text)
    oads_prf_itf_get                         0x0002bc77   Thumb Code     4  oads.o(.text)
    oads_task_init                           0x0002bfb1   Thumb Code    30  oads_task.o(.text)
    spi_device_wr_byte                       0x0002c069   Thumb Code     4  w25x40c.o(.text)
    spi_device_w_byte                        0x0002c06d   Thumb Code    16  w25x40c.o(.text)
    spi_device_r_byte                        0x0002c07d   Thumb Code    20  w25x40c.o(.text)
    spi_device_w_bytes                       0x0002c091   Thumb Code    50  w25x40c.o(.text)
    spi_device_r_bytes                       0x0002c0c3   Thumb Code    64  w25x40c.o(.text)
    flash_device_power_down_set              0x0002c103   Thumb Code    36  w25x40c.o(.text)
    flash_device_chipID_get                  0x0002c127   Thumb Code    76  w25x40c.o(.text)
    flash_device_spi_init                    0x0002c173   Thumb Code    64  w25x40c.o(.text)
    flash_device_spi_status_get              0x0002c1b3   Thumb Code    34  w25x40c.o(.text)
    flash_device_busy_wait                   0x0002c1d5   Thumb Code    36  w25x40c.o(.text)
    flash_device_spi_status_set              0x0002c1f9   Thumb Code    34  w25x40c.o(.text)
    flash_device_write_enable                0x0002c21b   Thumb Code    26  w25x40c.o(.text)
    flash_device_write_disable               0x0002c235   Thumb Code    26  w25x40c.o(.text)
    flash_device_deviceID_get                0x0002c24f   Thumb Code    50  w25x40c.o(.text)
    flash_read_complete_cb                   0x0002c281   Thumb Code    10  w25x40c.o(.text)
    flash_device_read_data                   0x0002c28b   Thumb Code    74  w25x40c.o(.text)
    flash_device_erase_sector                0x0002c2d5   Thumb Code    74  w25x40c.o(.text)
    flash_device_write_page                  0x0002c31f   Thumb Code    86  w25x40c.o(.text)
    flash_device_write_data                  0x0002c375   Thumb Code    68  w25x40c.o(.text)
    flash_device_erase_chip                  0x0002c3b9   Thumb Code    54  w25x40c.o(.text)
    app_flash_read                           0x0002c3ef   Thumb Code    60  w25x40c.o(.text)
    app_flash_write                          0x0002c42b   Thumb Code    32  w25x40c.o(.text)
    key_press_detect                         0x0002c4c1   Thumb Code    76  lcd360.o(.text)
    lcd_gpio_init                            0x0002c50d   Thumb Code    44  lcd360.o(.text)
    WriteComm                                0x0002c539   Thumb Code    20  lcd360.o(.text)
    WriteData                                0x0002c54d   Thumb Code    20  lcd360.o(.text)
    WriteDispData                            0x0002c561   Thumb Code    16  lcd360.o(.text)
    LCD_Init                                 0x0002c571   Thumb Code  2988  lcd360.o(.text)
    BlockWrite                               0x0002d11d   Thumb Code    94  lcd360.o(.text)
    display_image                            0x0002d17b   Thumb Code    88  lcd360.o(.text)
    display_color                            0x0002d1d3   Thumb Code    50  lcd360.o(.text)
    DispFrame                                0x0002d205   Thumb Code   162  lcd360.o(.text)
    app_f000_init                            0x0002d2c9   Thumb Code    12  app_f000.o(.text)
    app_f000_add_f000s                       0x0002d2d5   Thumb Code    60  app_f000.o(.text)
    app_f004_send_ntf                        0x0002d311   Thumb Code    52  app_f000.o(.text)
    app_f005_send_ind                        0x0002d345   Thumb Code    54  app_f000.o(.text)
    f000s_get_att_handle                     0x0002d65b   Thumb Code    28  f000s.o(.text)
    f000s_notify_f004_val                    0x0002d677   Thumb Code    76  f000s.o(.text)
    f000s_indicate_f005_val                  0x0002d6c3   Thumb Code    76  f000s.o(.text)
    f000s_prf_itf_get                        0x0002d70f   Thumb Code     6  f000s.o(.text)
    f000s_get_att_idx                        0x0002d715   Thumb Code    32  f000s.o(.text)
    f000s_task_init                          0x0002db29   Thumb Code   180  f000s_task.o(.text)
    vsprintf                                 0x0002dbdd   Thumb Code    32  vsprintf.o(.text)
    _printf_pre_padding                      0x0002dc01   Thumb Code    44  _printf_pad.o(.text)
    _printf_post_padding                     0x0002dc2d   Thumb Code    34  _printf_pad.o(.text)
    _printf_truncate_signed                  0x0002dc4f   Thumb Code    22  _printf_truncate.o(.text)
    _printf_truncate_unsigned                0x0002dc65   Thumb Code    22  _printf_truncate.o(.text)
    _printf_str                              0x0002dc7b   Thumb Code    82  _printf_str.o(.text)
    Inline ARM to Thumb Veneer to _printf_int_dec 0x0002dccc   ARM Code       8  _printf_dec.o(.text)
    _printf_int_dec                          0x0002dcd5   Thumb Code    90  _printf_dec.o(.text)
    Inline ARM to Thumb Veneer to _printf_charcount 0x0002dd40   ARM Code       8  _printf_charcount.o(.text)
    _printf_charcount                        0x0002dd49   Thumb Code    38  _printf_charcount.o(.text)
    _printf_char_common                      0x0002dd7b   Thumb Code    32  _printf_char_common.o(.text)
    _sputc                                   0x0002dda1   Thumb Code    10  _sputc.o(.text)
    _printf_wctomb                           0x0002ddad   Thumb Code   182  _printf_wctomb.o(.text)
    Inline ARM to Thumb Veneer to _printf_longlong_dec 0x0002de68   ARM Code       8  _printf_longlong_dec.o(.text)
    _printf_longlong_dec                     0x0002de71   Thumb Code    94  _printf_longlong_dec.o(.text)
    Inline ARM to Thumb Veneer to _printf_int_oct 0x0002dee0   ARM Code       8  _printf_oct_int_ll.o(.text)
    _printf_longlong_oct                     0x0002dee9   Thumb Code    68  _printf_oct_int_ll.o(.text)
    _printf_int_oct                          0x0002df2d   Thumb Code    24  _printf_oct_int_ll.o(.text)
    _printf_ll_oct                           0x0002df45   Thumb Code    10  _printf_oct_int_ll.o(.text)
    Inline ARM to Thumb Veneer to _printf_hex_ptr 0x0002df58   ARM Code       8  _printf_hex_int_ll_ptr.o(.text)
    _printf_longlong_hex                     0x0002df61   Thumb Code    88  _printf_hex_int_ll_ptr.o(.text)
    _printf_int_hex                          0x0002dfb9   Thumb Code    28  _printf_hex_int_ll_ptr.o(.text)
    _printf_ll_hex                           0x0002dfd5   Thumb Code    10  _printf_hex_int_ll_ptr.o(.text)
    _printf_hex_ptr                          0x0002dfdf   Thumb Code    22  _printf_hex_int_ll_ptr.o(.text)
    __printf                                 0x0002dff9   Thumb Code   386  __printf_flags_ss_wp.o(.text)
    _ll_udiv10                               0x0002e180   ARM Code     152  lludiv10.o(.text)
    _printf_int_common                       0x0002e219   Thumb Code   176  _printf_intcommon.o(.text)
    __lib_sel_fp_printf                      0x0002e2c9   Thumb Code     2  _printf_fp_dec.o(.text)
    _printf_fp_dec_real                      0x0002e465   Thumb Code   620  _printf_fp_dec.o(.text)
    Inline ARM to Thumb Veneer to _printf_fp_hex_real 0x0002e6dc   ARM Code       8  _printf_fp_hex.o(.text)
    _printf_fp_hex_real                      0x0002e6e5   Thumb Code   718  _printf_fp_hex.o(.text)
    Inline ARM to Thumb Veneer to _printf_char 0x0002e9bc   ARM Code       8  _printf_char.o(.text)
    _printf_cs_common                        0x0002e9c5   Thumb Code    22  _printf_char.o(.text)
    _printf_char                             0x0002e9db   Thumb Code    16  _printf_char.o(.text)
    _printf_string                           0x0002e9eb   Thumb Code     8  _printf_char.o(.text)
    Inline ARM to Thumb Veneer to _printf_wchar 0x0002e9f4   ARM Code       8  _printf_wchar.o(.text)
    _printf_lcs_common                       0x0002e9fd   Thumb Code    22  _printf_wchar.o(.text)
    _printf_wchar                            0x0002ea13   Thumb Code    16  _printf_wchar.o(.text)
    _printf_wstring                          0x0002ea23   Thumb Code     8  _printf_wchar.o(.text)
    _wcrtomb                                 0x0002ea2b   Thumb Code    64  _wcrtomb.o(.text)
    __rt_udiv10                              0x0002ea6c   ARM Code      44  rtudiv10.o(.text)
    __rt_ctype_table                         0x0002ea98   ARM Code      20  rt_ctype_table.o(.text)
    __rt_locale                              0x0002eaac   ARM Code      12  rt_locale_intlibspace.o(.text)
    _printf_fp_infnan                        0x0002eab9   Thumb Code   120  _printf_fp_infnan.o(.text)
    _btod_etento                             0x0002eb41   Thumb Code   210  bigflt0.o(.text)
    exit                                     0x0002ec19   Thumb Code    16  exit.o(.text)
    strcmp                                   0x0002ec28   ARM Code     240  strcmp.o(.text)
    __I$use$semihosting                      0x0002ed1c   ARM Code       0  use_no_semi.o(.text)
    __use_no_semihosting_swi                 0x0002ed1c   ARM Code       4  use_no_semi.o(.text)
    __semihosting_library_function           0x0002ed20   ARM Code       0  indicate_semi.o(.text)
    _sys_exit                                0x0002ed21   Thumb Code     8  sys_exit.o(.text)
    _btod_d2e                                0x0002ed2c   ARM Code      56  btod.o(CL$$btod_d2e)
    _d2e_denorm_low                          0x0002ed64   ARM Code      84  btod.o(CL$$btod_d2e_denorm_low)
    _d2e_norm_op1                            0x0002edb8   ARM Code     104  btod.o(CL$$btod_d2e_norm_op1)
    __btod_div_common                        0x0002ee20   ARM Code     712  btod.o(CL$$btod_div_common)
    _e2e                                     0x0002f168   ARM Code     244  btod.o(CL$$btod_e2e)
    _btod_ediv                               0x0002f25c   ARM Code      52  btod.o(CL$$btod_ediv)
    _btod_emul                               0x0002f290   ARM Code      52  btod.o(CL$$btod_emul)
    __btod_mult_common                       0x0002f2c4   ARM Code     612  btod.o(CL$$btod_mult_common)
    Long ARM to Thumb Veneer to _printf_int_hex 0x0002f528   ARM Code       8  anon$$obj.o(Veneer$$Code)
    Long ARM to Thumb Veneer to _printf_ll_oct 0x0002f530   ARM Code       8  anon$$obj.o(Veneer$$Code)
    Long ARM to Thumb Veneer to _printf_ll_hex 0x0002f538   ARM Code       8  anon$$obj.o(Veneer$$Code)
    Long ARM to Thumb Veneer to _printf_string 0x0002f540   ARM Code       8  anon$$obj.o(Veneer$$Code)
    Long ARM to Thumb Veneer to _printf_wstring 0x0002f548   ARM Code       8  anon$$obj.o(Veneer$$Code)
    Long ARM to Thumb Veneer to _printf_fp_dec_real 0x0002f550   ARM Code       8  anon$$obj.o(Veneer$$Code)
    __ARM_fpclassify                         0x0002f558   ARM Code      44  fpclassify.o(i.__ARM_fpclassify)
    _is_digit                                0x0002f589   Thumb Code    14  __printf_wp.o(i._is_digit)
    _get_lc_numeric                          0x0002f598   ARM Code      72  lc_numeric_c.o(locale$$code)
    _get_lc_ctype                            0x0002f5e0   ARM Code      72  lc_ctype_c.o(locale$$code)
    __aeabi_ui2d                             0x0002f628   ARM Code       0  dflt_clz.o(x$fpl$dfltu)
    _dfltu                                   0x0002f628   ARM Code      44  dflt_clz.o(x$fpl$dfltu)
    __aeabi_dmul                             0x0002f654   ARM Code       0  dmul.o(x$fpl$dmul)
    _dmul                                    0x0002f654   ARM Code     364  dmul.o(x$fpl$dmul)
    __fpl_dnaninf                            0x0002f7cc   ARM Code     184  dnaninf.o(x$fpl$dnaninf)
    __fpl_dretinf                            0x0002f884   ARM Code      16  dretinf.o(x$fpl$dretinf)
    __ieee_status                            0x0002f894   ARM Code       8  istatus.o(x$fpl$ieeestatus)
    _printf_fp_dec                           0x0002f89c   ARM Code       4  printf1.o(x$fpl$printf1)
    _printf_fp_hex                           0x0002f8a0   ARM Code       4  printf2.o(x$fpl$printf2)
    __I$use$fp                               0x0002f8a4   Number         0  usenofp.o(x$fpl$usenofp)
    uart_api                                 0x0002f8a4   Data          16  main.o(.constdata)
    app_batt_msg_handler_list                0x0002f8e4   Data          32  app_batt.o(.constdata)
    app_batt_handlers                        0x0002f904   Data           8  app_batt.o(.constdata)
    app_dis_msg_handler_list                 0x0002f90c   Data           8  app_dis.o(.constdata)
    app_dis_handlers                         0x0002f914   Data           8  app_dis.o(.constdata)
    app_oads_msg_handler_list                0x0002f91c   Data          48  app_oads.o(.constdata)
    app_oads_handler                         0x0002f94c   Data           8  app_oads.o(.constdata)
    app_sec_msg_handler_list                 0x0002fa44   Data          40  app_sec.o(.constdata)
    app_sec_handlers                         0x0002fa6c   Data           8  app_sec.o(.constdata)
    TASK_DESC_APP                            0x0002fb0c   Data          12  app_task.o(.constdata)
    diss_att_db                              0x0002fd04   Data         152  diss.o(.constdata)
    diss_itf                                 0x0002fd9c   Data          16  diss.o(.constdata)
    bas_att_db                               0x0002fdc4   Data          40  bass.o(.constdata)
    bass_itf                                 0x0002fdec   Data          16  bass.o(.constdata)
    ancsc_itf                                0x0002fe2c   Data          16  ancsc.o(.constdata)
    ancsc_ancs_char_desc                     0x0002fe3c   Data           8  ancsc_task.o(.constdata)
    ancsc_ancs_char                          0x0002fe44   Data          12  ancsc_task.o(.constdata)
    oads_att_db                              0x0002fec4   Data          72  oads.o(.constdata)
    oads_itf                                 0x0002ff0c   Data          16  oads.o(.constdata)
    app_f000_msg_handler_list                0x0002ffc8   Data          56  app_f000.o(.constdata)
    app_f000_handler                         0x00030000   Data           8  app_f000.o(.constdata)
    f000_att_db                              0x00030054   Data         112  f000s.o(.constdata)
    f000s_itf                                0x000300c4   Data          16  f000s.o(.constdata)
    Region$$Table$$Base                      0x00030460   Number         0  anon$$obj.o(Region$$Table)
    Region$$Table$$Limit                     0x00030490   Number         0  anon$$obj.o(Region$$Table)
    __ctype                                  0x000304b9   Data           0  lc_ctype_c.o(locale$$data)
    Load$$RAM_DATA$$Base                     0x000305bc   Number         0  anon$$obj.o ABSOLUTE
    llc_env                                  0x0040002c   Data           0  peripheral_stack_symbol.txt ABSOLUTE
    co_default_bdaddr                        0x00400090   Data           0  peripheral_stack_symbol.txt ABSOLUTE
    gapc_env                                 0x00400098   Data           0  peripheral_stack_symbol.txt ABSOLUTE
    gapc_state                               0x0040009c   Data           0  peripheral_stack_symbol.txt ABSOLUTE
    gapm_state                               0x0040009d   Data           0  peripheral_stack_symbol.txt ABSOLUTE
    gattc_env                                0x004000a0   Data           0  peripheral_stack_symbol.txt ABSOLUTE
    gattc_state                              0x004000a4   Data           0  peripheral_stack_symbol.txt ABSOLUTE
    gattm_state                              0x004000a5   Data           0  peripheral_stack_symbol.txt ABSOLUTE
    l2cc_env                                 0x004000a8   Data           0  peripheral_stack_symbol.txt ABSOLUTE
    l2cc_state                               0x004000ac   Data           0  peripheral_stack_symbol.txt ABSOLUTE
    ke_env                                   0x004000d4   Data           0  peripheral_stack_symbol.txt ABSOLUTE
    hci_env                                  0x004004e4   Data           0  peripheral_stack_symbol.txt ABSOLUTE
    rwip_rf                                  0x0040069c   Data           0  peripheral_stack_symbol.txt ABSOLUTE
    rwip_param                               0x004006d0   Data           0  peripheral_stack_symbol.txt ABSOLUTE
    rom_env                                  0x004006dc   Data           0  peripheral_stack_symbol.txt ABSOLUTE
    rwip_env                                 0x00400704   Data           0  peripheral_stack_symbol.txt ABSOLUTE
    gapm_env                                 0x00400720   Data           0  peripheral_stack_symbol.txt ABSOLUTE
    gattm_env                                0x00400770   Data           0  peripheral_stack_symbol.txt ABSOLUTE
    l2cm_env                                 0x004007a8   Data           0  peripheral_stack_symbol.txt ABSOLUTE
    Image$$RAM_DATA$$Base                    0x00400800   Number         0  anon$$obj.o ABSOLUTE
    app_batt_env                             0x00400800   Data           2  app_batt.o(.data)
    app_oads_env                             0x00400802   Data           1  app_oads.o(.data)
    app_sec_env                              0x00400803   Data           5  app_sec.o(.data)
    appm_state                               0x00400808   Data           1  app_task.o(.data)
    app_ancsc_env                            0x0040080c   Data           2  app_ancsc.o(.data)
    NotificationUID_copy_incall              0x00400810   Data           4  app_ancsc.o(.data)
    rwip_rst_state                           0x00400818   Data           1  rwip.o(.data)
    flash_enable_write_flag1                 0x0040081c   Data           1  flash.o(.data)
    flash_enable_write_flag2                 0x0040081d   Data           1  flash.o(.data)
    flash_enable_write_flag3                 0x0040081e   Data           1  flash.o(.data)
    flash_enable_write_flag4                 0x0040081f   Data           1  flash.o(.data)
    flash_enable_erase_flag1                 0x00400820   Data           1  flash.o(.data)
    flash_enable_erase_flag2                 0x00400821   Data           1  flash.o(.data)
    flash_mid                                0x00400824   Data           4  flash.o(.data)
    system_sleep_status                      0x0040082e   Data           1  icu.o(.data)
    system_sleep_flag                        0x00400830   Data           1  icu.o(.data)
    system_mode                              0x00400831   Data           1  icu.o(.data)
    uart2_rx_done                            0x00400834   Data           1  uart2.o(.data)
    uart2_rx_index                           0x00400838   Data           4  uart2.o(.data)
    oad_firmware_type                        0x0040084d   Data           1  oads.o(.data)
    latency_disable_state                    0x0040084e   Data           1  oads.o(.data)
    oad_uuid                                 0x00400858   Data           4  oads.o(.data)
    app_f000_env                             0x00400864   Data           3  app_f000.o(.data)
    Image$$RAM_BSS$$Base                     0x00400868   Number         0  anon$$obj.o ABSOLUTE
    testflashbuffer                          0x00400868   Data        4096  main.o(.bss)
    app_env                                  0x00401868   Data          46  app.o(.bss)
    rwip_heap_msg                            0x00401898   Data        9732  rwip.o(.bss)
    prf_env                                  0x00403eb4   Data         200  prf.o(.bss)
    XVR_ANALOG_REG_BAK                       0x00403f7c   Data         128  rf_xvr.o(.bss)
    spi_param                                0x00403ffc   Data          12  spi.o(.bss)
    uart2_rx_buf                             0x00404008   Data         128  uart2.o(.bss)
    uart2_tx_buf                             0x00404088   Data         128  uart2.o(.bss)
    uart_rx_buf                              0x00404150   Data         128  uart.o(.bss)
    bsec                                     0x004041d0   Data         192  oads.o(.bss)
    __libspace_start                         0x00404290   Data          96  libspace.o(.bss)
    __temporary_stack_top$libspace           0x004042f0   Data           0  libspace.o(.bss)
    Image$$RAM_STACK_UNUSED$$Base            0x0040f2cc   Number         0  anon$$obj.o ABSOLUTE
    Image$$RAM_STACK_SVC$$Base               0x0040f32c   Number         0  anon$$obj.o ABSOLUTE
    Image$$RAM_STACK_IRQ$$Base               0x0040fa1c   Number         0  anon$$obj.o ABSOLUTE
    Image$$RAM_STACK_FIQ$$Base               0x0040fe0c   Number         0  anon$$obj.o ABSOLUTE
    __initial_sp                             0x0040fffc   Number         0  boot_handlers.o ABSOLUTE
    rwip_heap_env                            0x00812800   Data         788  rwip.o(ke_heap)
    rwip_heap_db                             0x00812b14   Data        3084  rwip.o(ke_heap)
    rwip_heap_non_ret                        0x00813720   Data         668  rwip.o(ke_heap)



==============================================================================

Memory Map of the image

  Image Entry point : 0x00025b84

  Load Region SECTIONS (Base: 0x00025b00, Size: 0x0000ab24, Max: 0xffffffff, ABSOLUTE)

    Execution Region ROM_SYS (Exec base: 0x00025b00, Load base: 0x00025b00, Size: 0x00000278, Max: 0xffffffff, ABSOLUTE)

    Exec Addr    Load Addr    Size         Type   Attr      Idx    E Section Name        Object

    0x00025b00   0x00025b00   0x0000005c   Code   RO            6  * SYS_BOOT            boot_vectors.o
    0x00025b5c   0x00025b5c   0x000001f4   Code   RO            5  * SYS_BOOT            boot_handlers.o
    0x00025d50   0x00025d50   0x00000008   Ven    RO          378    Veneer$$Code        anon$$obj.o
    0x00025d58   0x00025d58   0x00000008   Ven    RO          379    Veneer$$Code        anon$$obj.o
    0x00025d60   0x00025d60   0x00000008   Ven    RO          380    Veneer$$Code        anon$$obj.o
    0x00025d68   0x00025d68   0x00000008   Ven    RO          381    Veneer$$Code        anon$$obj.o
    0x00025d70   0x00025d70   0x00000008   Ven    RO          382    Veneer$$Code        anon$$obj.o


    Execution Region FAST_CALL_SEG (Exec base: 0x00025e00, Load base: 0x00025e00, Size: 0x00000030, Max: 0xffffffff, ABSOLUTE, FIXED)

    Exec Addr    Load Addr    Size         Type   Attr      Idx    E Section Name        Object

    0x00025e00   0x00025e00   0x00000010   Code   RO           87    sys_fiq_entry       intc.o
    0x00025e10   0x00025e10   0x00000010   PAD
    0x00025e20   0x00025e20   0x00000010   Code   RO           88    sys_irq_entry       intc.o


    Execution Region ROM (Exec base: 0x00025e30, Load base: 0x00025e30, Size: 0x0000a78c, Max: 0xffffffff, ABSOLUTE)

    Exec Addr    Load Addr    Size         Type   Attr      Idx    E Section Name        Object

    0x00025e30   0x00025e30   0x00000008   Code   RO          126  * !!!main             c_5.l(__main.o)
    0x00025e38   0x00025e38   0x0000003c   Code   RO          366    !!!scatter          c_5.l(__scatter.o)
    0x00025e74   0x00025e74   0x00000028   Code   RO          367    !!handler_copy      c_5.l(__scatter_copy.o)
    0x00025e9c   0x00025e9c   0x0000002c   Code   RO          368    !!handler_zi        c_5.l(__scatter_zi.o)
    0x00025ec8   0x00025ec8   0x00000000   Code   RO          185    .ARM.Collect$$_printf_percent$$00000000  c_5.l(_printf_percent.o)
    0x00025ec8   0x00025ec8   0x00000008   Code   RO          174    .ARM.Collect$$_printf_percent$$00000001  c_5.l(_printf_n.o)
    0x00025ed0   0x00025ed0   0x00000008   Code   RO          176    .ARM.Collect$$_printf_percent$$00000002  c_5.l(_printf_p.o)
    0x00025ed8   0x00025ed8   0x00000008   Code   RO          181    .ARM.Collect$$_printf_percent$$00000003  c_5.l(_printf_f.o)
    0x00025ee0   0x00025ee0   0x00000008   Code   RO          182    .ARM.Collect$$_printf_percent$$00000004  c_5.l(_printf_e.o)
    0x00025ee8   0x00025ee8   0x00000008   Code   RO          183    .ARM.Collect$$_printf_percent$$00000005  c_5.l(_printf_g.o)
    0x00025ef0   0x00025ef0   0x00000008   Code   RO          184    .ARM.Collect$$_printf_percent$$00000006  c_5.l(_printf_a.o)
    0x00025ef8   0x00025ef8   0x0000000c   Code   RO          189    .ARM.Collect$$_printf_percent$$00000007  c_5.l(_printf_ll.o)
    0x00025f04   0x00025f04   0x00000008   Code   RO          178    .ARM.Collect$$_printf_percent$$00000008  c_5.l(_printf_i.o)
    0x00025f0c   0x00025f0c   0x00000008   Code   RO          179    .ARM.Collect$$_printf_percent$$00000009  c_5.l(_printf_d.o)
    0x00025f14   0x00025f14   0x00000008   Code   RO          180    .ARM.Collect$$_printf_percent$$0000000A  c_5.l(_printf_u.o)
    0x00025f1c   0x00025f1c   0x00000008   Code   RO          177    .ARM.Collect$$_printf_percent$$0000000B  c_5.l(_printf_o.o)
    0x00025f24   0x00025f24   0x00000008   Code   RO          175    .ARM.Collect$$_printf_percent$$0000000C  c_5.l(_printf_x.o)
    0x00025f2c   0x00025f2c   0x00000008   Code   RO          186    .ARM.Collect$$_printf_percent$$0000000D  c_5.l(_printf_lli.o)
    0x00025f34   0x00025f34   0x00000008   Code   RO          187    .ARM.Collect$$_printf_percent$$0000000E  c_5.l(_printf_lld.o)
    0x00025f3c   0x00025f3c   0x00000008   Code   RO          188    .ARM.Collect$$_printf_percent$$0000000F  c_5.l(_printf_llu.o)
    0x00025f44   0x00025f44   0x00000008   Code   RO          193    .ARM.Collect$$_printf_percent$$00000010  c_5.l(_printf_llo.o)
    0x00025f4c   0x00025f4c   0x00000008   Code   RO          194    .ARM.Collect$$_printf_percent$$00000011  c_5.l(_printf_llx.o)
    0x00025f54   0x00025f54   0x0000000c   Code   RO          190    .ARM.Collect$$_printf_percent$$00000012  c_5.l(_printf_l.o)
    0x00025f60   0x00025f60   0x00000008   Code   RO          172    .ARM.Collect$$_printf_percent$$00000013  c_5.l(_printf_c.o)
    0x00025f68   0x00025f68   0x00000008   Code   RO          173    .ARM.Collect$$_printf_percent$$00000014  c_5.l(_printf_s.o)
    0x00025f70   0x00025f70   0x00000008   Code   RO          191    .ARM.Collect$$_printf_percent$$00000015  c_5.l(_printf_lc.o)
    0x00025f78   0x00025f78   0x00000008   Code   RO          192    .ARM.Collect$$_printf_percent$$00000016  c_5.l(_printf_ls.o)
    0x00025f80   0x00025f80   0x00000008   Code   RO          229    .ARM.Collect$$_printf_percent$$00000017  c_5.l(_printf_percent_end.o)
    0x00025f88   0x00025f88   0x00000002   Code   RO          257    .ARM.Collect$$libinit$$00000000  c_5.l(libinit.o)
    0x00025f8a   0x00025f8a   0x00000000   Code   RO          269    .ARM.Collect$$libinit$$00000002  c_5.l(libinit2.o)
    0x00025f8a   0x00025f8a   0x00000000   Code   RO          271    .ARM.Collect$$libinit$$00000004  c_5.l(libinit2.o)
    0x00025f8a   0x00025f8a   0x00000000   Code   RO          274    .ARM.Collect$$libinit$$0000000A  c_5.l(libinit2.o)
    0x00025f8a   0x00025f8a   0x00000000   Code   RO          276    .ARM.Collect$$libinit$$0000000C  c_5.l(libinit2.o)
    0x00025f8a   0x00025f8a   0x00000000   Code   RO          278    .ARM.Collect$$libinit$$0000000E  c_5.l(libinit2.o)
    0x00025f8a   0x00025f8a   0x00000006   Code   RO          279    .ARM.Collect$$libinit$$0000000F  c_5.l(libinit2.o)
    0x00025f90   0x00025f90   0x00000000   Code   RO          281    .ARM.Collect$$libinit$$00000011  c_5.l(libinit2.o)
    0x00025f90   0x00025f90   0x0000000c   Code   RO          282    .ARM.Collect$$libinit$$00000012  c_5.l(libinit2.o)
    0x00025f9c   0x00025f9c   0x00000000   Code   RO          283    .ARM.Collect$$libinit$$00000013  c_5.l(libinit2.o)
    0x00025f9c   0x00025f9c   0x00000000   Code   RO          285    .ARM.Collect$$libinit$$00000015  c_5.l(libinit2.o)
    0x00025f9c   0x00025f9c   0x0000000a   Code   RO          286    .ARM.Collect$$libinit$$00000016  c_5.l(libinit2.o)
    0x00025fa6   0x00025fa6   0x00000000   Code   RO          287    .ARM.Collect$$libinit$$00000017  c_5.l(libinit2.o)
    0x00025fa6   0x00025fa6   0x00000000   Code   RO          289    .ARM.Collect$$libinit$$00000019  c_5.l(libinit2.o)
    0x00025fa6   0x00025fa6   0x00000000   Code   RO          291    .ARM.Collect$$libinit$$0000001B  c_5.l(libinit2.o)
    0x00025fa6   0x00025fa6   0x00000000   Code   RO          293    .ARM.Collect$$libinit$$0000001D  c_5.l(libinit2.o)
    0x00025fa6   0x00025fa6   0x00000000   Code   RO          295    .ARM.Collect$$libinit$$0000001F  c_5.l(libinit2.o)
    0x00025fa6   0x00025fa6   0x00000000   Code   RO          297    .ARM.Collect$$libinit$$00000021  c_5.l(libinit2.o)
    0x00025fa6   0x00025fa6   0x00000000   Code   RO          299    .ARM.Collect$$libinit$$00000023  c_5.l(libinit2.o)
    0x00025fa6   0x00025fa6   0x00000000   Code   RO          301    .ARM.Collect$$libinit$$00000025  c_5.l(libinit2.o)
    0x00025fa6   0x00025fa6   0x00000000   Code   RO          305    .ARM.Collect$$libinit$$0000002C  c_5.l(libinit2.o)
    0x00025fa6   0x00025fa6   0x00000000   Code   RO          307    .ARM.Collect$$libinit$$0000002E  c_5.l(libinit2.o)
    0x00025fa6   0x00025fa6   0x00000000   Code   RO          309    .ARM.Collect$$libinit$$00000030  c_5.l(libinit2.o)
    0x00025fa6   0x00025fa6   0x00000000   Code   RO          311    .ARM.Collect$$libinit$$00000032  c_5.l(libinit2.o)
    0x00025fa6   0x00025fa6   0x00000002   Code   RO          312    .ARM.Collect$$libinit$$00000033  c_5.l(libinit2.o)
    0x00025fa8   0x00025fa8   0x00000002   Code   RO          328    .ARM.Collect$$libshutdown$$00000000  c_5.l(libshutdown.o)
    0x00025faa   0x00025faa   0x00000000   Code   RO          334    .ARM.Collect$$libshutdown$$00000002  c_5.l(libshutdown2.o)
    0x00025faa   0x00025faa   0x00000000   Code   RO          336    .ARM.Collect$$libshutdown$$00000004  c_5.l(libshutdown2.o)
    0x00025faa   0x00025faa   0x00000000   Code   RO          339    .ARM.Collect$$libshutdown$$00000007  c_5.l(libshutdown2.o)
    0x00025faa   0x00025faa   0x00000000   Code   RO          342    .ARM.Collect$$libshutdown$$0000000A  c_5.l(libshutdown2.o)
    0x00025faa   0x00025faa   0x00000000   Code   RO          344    .ARM.Collect$$libshutdown$$0000000C  c_5.l(libshutdown2.o)
    0x00025faa   0x00025faa   0x00000000   Code   RO          347    .ARM.Collect$$libshutdown$$0000000F  c_5.l(libshutdown2.o)
    0x00025faa   0x00025faa   0x00000002   Code   RO          348    .ARM.Collect$$libshutdown$$00000010  c_5.l(libshutdown2.o)
    0x00025fac   0x00025fac   0x00000000   Code   RO          131    .ARM.Collect$$rtentry$$00000000  c_5.l(__rtentry.o)
    0x00025fac   0x00025fac   0x00000000   Code   RO          203    .ARM.Collect$$rtentry$$00000002  c_5.l(__rtentry2.o)
    0x00025fac   0x00025fac   0x00000004   Code   RO          217    .ARM.Collect$$rtentry$$00000005  c_5.l(__rtentry5.o)
    0x00025fb0   0x00025fb0   0x00000000   Code   RO          205    .ARM.Collect$$rtentry$$00000009  c_5.l(__rtentry2.o)
    0x00025fb0   0x00025fb0   0x00000004   Code   RO          206    .ARM.Collect$$rtentry$$0000000A  c_5.l(__rtentry2.o)
    0x00025fb4   0x00025fb4   0x00000000   Code   RO          208    .ARM.Collect$$rtentry$$0000000C  c_5.l(__rtentry2.o)
    0x00025fb4   0x00025fb4   0x00000028   Code   RO          209    .ARM.Collect$$rtentry$$0000000D  c_5.l(__rtentry2.o)
    0x00025fdc   0x00025fdc   0x00000004   Code   RO          218    .ARM.Collect$$rtentry$$00002716  c_5.l(__rtentry5.o)
    0x00025fe0   0x00025fe0   0x00000004   Code   RO          263    .ARM.Collect$$rtexit$$00000000  c_5.l(rtexit.o)
    0x00025fe4   0x00025fe4   0x00000000   Code   RO          316    .ARM.Collect$$rtexit$$00000002  c_5.l(rtexit2.o)
    0x00025fe4   0x00025fe4   0x00000004   Code   RO          317    .ARM.Collect$$rtexit$$00000003  c_5.l(rtexit2.o)
    0x00025fe8   0x00025fe8   0x00000008   Code   RO          318    .ARM.Collect$$rtexit$$00000004  c_5.l(rtexit2.o)
    0x00025ff0   0x00025ff0   0x00000008   Ven    RO            7    .text               main.o
    0x00025ff8   0x00025ff8   0x00000338   Code   RO            7    .text               main.o
    0x00026330   0x00026330   0x000002e0   Code   RO           15    .text               app.o
    0x00026610   0x00026610   0x000000a4   Code   RO           19    .text               app_batt.o
    0x000266b4   0x000266b4   0x00000114   Code   RO           23    .text               app_dis.o
    0x000267c8   0x000267c8   0x000001b8   Code   RO           26    .text               app_oads.o
    0x00026980   0x00026980   0x00000394   Code   RO           31    .text               app_sec.o
    0x00026d14   0x00026d14   0x000008ec   Code   RO           37    .text               app_task.o
    0x00027600   0x00027600   0x000004b0   Code   RO           42    .text               app_ancsc.o
    0x00027ab0   0x00027ab0   0x00000134   Code   RO           47    .text               rwble.o
    0x00027be4   0x00027be4   0x00000390   Code   RO           50    .text               rwip.o
    0x00027f74   0x00027f74   0x000002fc   Code   RO           54    .text               nvds.o
    0x00028270   0x00028270   0x000003dc   Code   RO           57    .text               prf_utils.o
    0x0002864c   0x0002864c   0x0000025c   Code   RO           58    .text               prf.o
    0x000288a8   0x000288a8   0x00000700   Code   RO           60    .text               flash.o
    0x00028fa8   0x00028fa8   0x00000908   Code   RO           63    .text               rf_xvr.o
    0x000298b0   0x000298b0   0x00000164   Code   RO           66    .text               gpio.o
    0x00029a14   0x00029a14   0x00000390   Code   RO           68    .text               spi.o
    0x00029da4   0x00029da4   0x0000029c   Code   RO           71    .text               icu.o
    0x0002a040   0x0002a040   0x00000034   Code   RO           73    .text               wdt.o
    0x0002a074   0x0002a074   0x00000104   Code   RO           76    .text               uart2.o
    0x0002a178   0x0002a178   0x00000248   Code   RO           79    .text               uart.o
    0x0002a3c0   0x0002a3c0   0x00000074   Code   RO           84    .text               aon_rtc.o
    0x0002a434   0x0002a434   0x000000c0   Code   RO           86    .text               intc.o
    0x0002a4f4   0x0002a4f4   0x0000007c   Code   RO           91    .text               dma.o
    0x0002a570   0x0002a570   0x00000178   Code   RO           92    .text               diss.o
    0x0002a6e8   0x0002a6e8   0x000001f0   Code   RO           94    .text               diss_task.o
    0x0002a8d8   0x0002a8d8   0x000003a8   Code   RO           96    .text               bass.o
    0x0002ac80   0x0002ac80   0x000002cc   Code   RO           98    .text               bass_task.o
    0x0002af4c   0x0002af4c   0x0000011c   Code   RO          100    .text               ancsc.o
    0x0002b068   0x0002b068   0x000004d0   Code   RO          102    .text               ancsc_task.o
    0x0002b538   0x0002b538   0x000007f4   Code   RO          105    .text               oads.o
    0x0002bd2c   0x0002bd2c   0x0000033c   Code   RO          109    .text               oads_task.o
    0x0002c068   0x0002c068   0x00000458   Code   RO          111    .text               w25x40c.o
    0x0002c4c0   0x0002c4c0   0x00000e08   Code   RO          112    .text               lcd360.o
    0x0002d2c8   0x0002d2c8   0x00000268   Code   RO          114    .text               app_f000.o
    0x0002d530   0x0002d530   0x00000214   Code   RO          119    .text               f000s.o
    0x0002d744   0x0002d744   0x00000498   Code   RO          121    .text               f000s_task.o
    0x0002dbdc   0x0002dbdc   0x00000024   Code   RO          125    .text               c_5.l(vsprintf.o)
    0x0002dc00   0x0002dc00   0x0000004e   Code   RO          133    .text               c_5.l(_printf_pad.o)
    0x0002dc4e   0x0002dc4e   0x0000002c   Code   RO          134    .text               c_5.l(_printf_truncate.o)
    0x0002dc7a   0x0002dc7a   0x00000052   Code   RO          135    .text               c_5.l(_printf_str.o)
    0x0002dccc   0x0002dccc   0x00000008   Ven    RO          136    .text               c_5.l(_printf_dec.o)
    0x0002dcd4   0x0002dcd4   0x0000006c   Code   RO          136    .text               c_5.l(_printf_dec.o)
    0x0002dd40   0x0002dd40   0x00000008   Ven    RO          137    .text               c_5.l(_printf_charcount.o)
    0x0002dd48   0x0002dd48   0x00000026   Code   RO          137    .text               c_5.l(_printf_charcount.o)
    0x0002dd6e   0x0002dd6e   0x00000002   PAD
    0x0002dd70   0x0002dd70   0x00000030   Code   RO          138    .text               c_5.l(_printf_char_common.o)
    0x0002dda0   0x0002dda0   0x0000000a   Code   RO          139    .text               c_5.l(_sputc.o)
    0x0002ddaa   0x0002ddaa   0x00000002   PAD
    0x0002ddac   0x0002ddac   0x000000bc   Code   RO          140    .text               c_5.l(_printf_wctomb.o)
    0x0002de68   0x0002de68   0x00000008   Ven    RO          142    .text               c_5.l(_printf_longlong_dec.o)
    0x0002de70   0x0002de70   0x00000070   Code   RO          142    .text               c_5.l(_printf_longlong_dec.o)
    0x0002dee0   0x0002dee0   0x00000008   Ven    RO          145    .text               c_5.l(_printf_oct_int_ll.o)
    0x0002dee8   0x0002dee8   0x00000070   Code   RO          145    .text               c_5.l(_printf_oct_int_ll.o)
    0x0002df58   0x0002df58   0x00000008   Ven    RO          158    .text               c_5.l(_printf_hex_int_ll_ptr.o)
    0x0002df60   0x0002df60   0x00000098   Code   RO          158    .text               c_5.l(_printf_hex_int_ll_ptr.o)
    0x0002dff8   0x0002dff8   0x00000188   Code   RO          170    .text               c_5.l(__printf_flags_ss_wp.o)
    0x0002e180   0x0002e180   0x00000098   Code   RO          221    .text               c_5.l(lludiv10.o)
    0x0002e218   0x0002e218   0x000000b0   Code   RO          222    .text               c_5.l(_printf_intcommon.o)
    0x0002e2c8   0x0002e2c8   0x00000414   Code   RO          223    .text               c_5.l(_printf_fp_dec.o)
    0x0002e6dc   0x0002e6dc   0x00000008   Ven    RO          224    .text               c_5.l(_printf_fp_hex.o)
    0x0002e6e4   0x0002e6e4   0x000002d8   Code   RO          224    .text               c_5.l(_printf_fp_hex.o)
    0x0002e9bc   0x0002e9bc   0x00000008   Ven    RO          227    .text               c_5.l(_printf_char.o)
    0x0002e9c4   0x0002e9c4   0x0000002e   Code   RO          227    .text               c_5.l(_printf_char.o)
    0x0002e9f2   0x0002e9f2   0x00000002   PAD
    0x0002e9f4   0x0002e9f4   0x00000008   Ven    RO          228    .text               c_5.l(_printf_wchar.o)
    0x0002e9fc   0x0002e9fc   0x0000002e   Code   RO          228    .text               c_5.l(_printf_wchar.o)
    0x0002ea2a   0x0002ea2a   0x00000040   Code   RO          230    .text               c_5.l(_wcrtomb.o)
    0x0002ea6a   0x0002ea6a   0x00000002   PAD
    0x0002ea6c   0x0002ea6c   0x0000002c   Code   RO          231    .text               c_5.l(rtudiv10.o)
    0x0002ea98   0x0002ea98   0x00000014   Code   RO          233    .text               c_5.l(rt_ctype_table.o)
    0x0002eaac   0x0002eaac   0x0000000c   Code   RO          236    .text               c_5.l(rt_locale_intlibspace.o)
    0x0002eab8   0x0002eab8   0x00000088   Code   RO          237    .text               c_5.l(_printf_fp_infnan.o)
    0x0002eb40   0x0002eb40   0x000000d8   Code   RO          238    .text               c_5.l(bigflt0.o)
    0x0002ec18   0x0002ec18   0x00000010   Code   RO          253    .text               c_5.l(exit.o)
    0x0002ec28   0x0002ec28   0x000000f4   Code   RO          267    .text               c_5.l(strcmp.o)
    0x0002ed1c   0x0002ed1c   0x00000004   Code   RO          313    .text               c_5.l(use_no_semi.o)
    0x0002ed20   0x0002ed20   0x00000000   Code   RO          314    .text               c_5.l(indicate_semi.o)
    0x0002ed20   0x0002ed20   0x0000000c   Code   RO          324    .text               c_5.l(sys_exit.o)
    0x0002ed2c   0x0002ed2c   0x00000038   Code   RO          240    CL$$btod_d2e        c_5.l(btod.o)
    0x0002ed64   0x0002ed64   0x00000054   Code   RO          242    CL$$btod_d2e_denorm_low  c_5.l(btod.o)
    0x0002edb8   0x0002edb8   0x00000068   Code   RO          241    CL$$btod_d2e_norm_op1  c_5.l(btod.o)
    0x0002ee20   0x0002ee20   0x00000348   Code   RO          250    CL$$btod_div_common  c_5.l(btod.o)
    0x0002f168   0x0002f168   0x000000f4   Code   RO          247    CL$$btod_e2e        c_5.l(btod.o)
    0x0002f25c   0x0002f25c   0x00000034   Code   RO          244    CL$$btod_ediv       c_5.l(btod.o)
    0x0002f290   0x0002f290   0x00000034   Code   RO          243    CL$$btod_emul       c_5.l(btod.o)
    0x0002f2c4   0x0002f2c4   0x00000264   Code   RO          249    CL$$btod_mult_common  c_5.l(btod.o)
    0x0002f528   0x0002f528   0x00000008   Ven    RO          383    Veneer$$Code        anon$$obj.o
    0x0002f530   0x0002f530   0x00000008   Ven    RO          384    Veneer$$Code        anon$$obj.o
    0x0002f538   0x0002f538   0x00000008   Ven    RO          385    Veneer$$Code        anon$$obj.o
    0x0002f540   0x0002f540   0x00000008   Ven    RO          386    Veneer$$Code        anon$$obj.o
    0x0002f548   0x0002f548   0x00000008   Ven    RO          387    Veneer$$Code        anon$$obj.o
    0x0002f550   0x0002f550   0x00000008   Ven    RO          388    Veneer$$Code        anon$$obj.o
    0x0002f558   0x0002f558   0x00000030   Code   RO          259    i.__ARM_fpclassify  m_5s.l(fpclassify.o)
    0x0002f588   0x0002f588   0x0000000e   Code   RO          166    i._is_digit         c_5.l(__printf_wp.o)
    0x0002f596   0x0002f596   0x00000002   PAD
    0x0002f598   0x0002f598   0x00000048   Code   RO          252    locale$$code        c_5.l(lc_numeric_c.o)
    0x0002f5e0   0x0002f5e0   0x00000048   Code   RO          266    locale$$code        c_5.l(lc_ctype_c.o)
    0x0002f628   0x0002f628   0x0000002c   Code   RO          127    x$fpl$dfltu         fz_5s.l(dflt_clz.o)
    0x0002f654   0x0002f654   0x00000178   Code   RO          130    x$fpl$dmul          fz_5s.l(dmul.o)
    0x0002f7cc   0x0002f7cc   0x000000b8   Code   RO          195    x$fpl$dnaninf       fz_5s.l(dnaninf.o)
    0x0002f884   0x0002f884   0x00000010   Code   RO          196    x$fpl$dretinf       fz_5s.l(dretinf.o)
    0x0002f894   0x0002f894   0x00000008   Code   RO          258    x$fpl$ieeestatus    fz_5s.l(istatus.o)
    0x0002f89c   0x0002f89c   0x00000004   Code   RO          197    x$fpl$printf1       fz_5s.l(printf1.o)
    0x0002f8a0   0x0002f8a0   0x00000004   Code   RO          198    x$fpl$printf2       fz_5s.l(printf2.o)
    0x0002f8a4   0x0002f8a4   0x00000000   Code   RO          201    x$fpl$usenofp       fz_5s.l(usenofp.o)
    0x0002f8a4   0x0002f8a4   0x00000010   Data   RO            9    .constdata          main.o
    0x0002f8b4   0x0002f8b4   0x0000002f   Data   RO           17    .constdata          app.o
    0x0002f8e3   0x0002f8e3   0x00000001   PAD
    0x0002f8e4   0x0002f8e4   0x00000020   Data   RO           20    .constdata          app_batt.o
    0x0002f904   0x0002f904   0x00000008   Data   RO           21    .constdata          app_batt.o
    0x0002f90c   0x0002f90c   0x00000008   Data   RO           24    .constdata          app_dis.o
    0x0002f914   0x0002f914   0x00000008   Data   RO           25    .constdata          app_dis.o
    0x0002f91c   0x0002f91c   0x00000030   Data   RO           27    .constdata          app_oads.o
    0x0002f94c   0x0002f94c   0x00000008   Data   RO           28    .constdata          app_oads.o
    0x0002f954   0x0002f954   0x000000a8   Data   RO           29    .constdata          app_oads.o
    0x0002f9fc   0x0002f9fc   0x00000046   Data   RO           32    .constdata          app_sec.o
    0x0002fa42   0x0002fa42   0x00000002   PAD
    0x0002fa44   0x0002fa44   0x00000028   Data   RO           33    .constdata          app_sec.o
    0x0002fa6c   0x0002fa6c   0x00000008   Data   RO           34    .constdata          app_sec.o
    0x0002fa74   0x0002fa74   0x00000098   Data   RO           38    .constdata          app_task.o
    0x0002fb0c   0x0002fb0c   0x0000000c   Data   RO           39    .constdata          app_task.o
    0x0002fb18   0x0002fb18   0x000000ae   Data   RO           40    .constdata          app_task.o
    0x0002fbc6   0x0002fbc6   0x00000121   Data   RO           45    .constdata          app_ancsc.o
    0x0002fce7   0x0002fce7   0x0000000a   Data   RO           48    .constdata          rwble.o
    0x0002fcf1   0x0002fcf1   0x00000004   Data   RO           56    .constdata          nvds.o
    0x0002fcf5   0x0002fcf5   0x0000000f   Data   RO           65    .constdata          rf_xvr.o
    0x0002fd04   0x0002fd04   0x000000a8   Data   RO           93    .constdata          diss.o
    0x0002fdac   0x0002fdac   0x00000018   Data   RO           95    .constdata          diss_task.o
    0x0002fdc4   0x0002fdc4   0x00000038   Data   RO           97    .constdata          bass.o
    0x0002fdfc   0x0002fdfc   0x00000030   Data   RO           99    .constdata          bass_task.o
    0x0002fe2c   0x0002fe2c   0x00000010   Data   RO          101    .constdata          ancsc.o
    0x0002fe3c   0x0002fe3c   0x00000088   Data   RO          103    .constdata          ancsc_task.o
    0x0002fec4   0x0002fec4   0x0000009e   Data   RO          107    .constdata          oads.o
    0x0002ff62   0x0002ff62   0x00000002   PAD
    0x0002ff64   0x0002ff64   0x00000062   Data   RO          110    .constdata          oads_task.o
    0x0002ffc6   0x0002ffc6   0x00000002   PAD
    0x0002ffc8   0x0002ffc8   0x00000038   Data   RO          115    .constdata          app_f000.o
    0x00030000   0x00030000   0x00000008   Data   RO          116    .constdata          app_f000.o
    0x00030008   0x00030008   0x0000004c   Data   RO          117    .constdata          app_f000.o
    0x00030054   0x00030054   0x00000080   Data   RO          120    .constdata          f000s.o
    0x000300d4   0x000300d4   0x000000da   Data   RO          122    .constdata          f000s_task.o
    0x000301ae   0x000301ae   0x00000002   PAD
    0x000301b0   0x000301b0   0x00000008   Data   RO          141    .constdata          c_5.l(_printf_wctomb.o)
    0x000301b8   0x000301b8   0x00000028   Data   RO          159    .constdata          c_5.l(_printf_hex_int_ll_ptr.o)
    0x000301e0   0x000301e0   0x00000011   Data   RO          171    .constdata          c_5.l(__printf_flags_ss_wp.o)
    0x000301f1   0x000301f1   0x00000026   Data   RO          225    .constdata          c_5.l(_printf_fp_hex.o)
    0x00030217   0x00030217   0x00000001   PAD
    0x00030218   0x00030218   0x00000094   Data   RO          239    .constdata          c_5.l(bigflt0.o)
    0x000302ac   0x000302ac   0x000000ca   Data   RO           35    .conststring        app_sec.o
    0x00030376   0x00030376   0x00000002   PAD
    0x00030378   0x00030378   0x000000e8   Data   RO          104    .conststring        ancsc_task.o
    0x00030460   0x00030460   0x00000030   Data   RO          364    Region$$Table       anon$$obj.o
    0x00030490   0x00030490   0x0000001c   Data   RO          251    locale$$data        c_5.l(lc_numeric_c.o)
    0x000304ac   0x000304ac   0x00000110   Data   RO          265    locale$$data        c_5.l(lc_ctype_c.o)


    Execution Region RAM_DATA (Exec base: 0x00400800, Load base: 0x000305bc, Size: 0x00000068, Max: 0xffffffff, ABSOLUTE)

    Exec Addr    Load Addr    Size         Type   Attr      Idx    E Section Name        Object

    0x00400800   0x000305bc   0x00000002   Data   RW           22    .data               app_batt.o
    0x00400802   0x000305be   0x00000001   Data   RW           30    .data               app_oads.o
    0x00400803   0x000305bf   0x00000005   Data   RW           36    .data               app_sec.o
    0x00400808   0x000305c4   0x00000001   Data   RW           41    .data               app_task.o
    0x00400809   0x000305c5   0x00000003   PAD
    0x0040080c   0x000305c8   0x00000008   Data   RW           46    .data               app_ancsc.o
    0x00400814   0x000305d0   0x00000004   Data   RW           49    .data               rwble.o
    0x00400818   0x000305d4   0x00000001   Data   RW           52    .data               rwip.o
    0x00400819   0x000305d5   0x00000003   PAD
    0x0040081c   0x000305d8   0x0000000c   Data   RW           62    .data               flash.o
    0x00400828   0x000305e4   0x00000004   Data   RW           67    .data               gpio.o
    0x0040082c   0x000305e8   0x00000001   Data   RW           70    .data               spi.o
    0x0040082d   0x000305e9   0x00000005   Data   RW           72    .data               icu.o
    0x00400832   0x000305ee   0x00000002   PAD
    0x00400834   0x000305f0   0x00000008   Data   RW           78    .data               uart2.o
    0x0040083c   0x000305f8   0x0000000c   Data   RW           83    .data               uart.o
    0x00400848   0x00030604   0x00000004   Data   RW           85    .data               aon_rtc.o
    0x0040084c   0x00030608   0x00000010   Data   RW          108    .data               oads.o
    0x0040085c   0x00030618   0x00000008   Data   RW          113    .data               lcd360.o
    0x00400864   0x00030620   0x00000003   Data   RW          118    .data               app_f000.o


    Execution Region RAM_BSS (Exec base: 0x00400868, Load base: 0x00030624, Size: 0x00003a88, Max: 0xffffffff, ABSOLUTE)

    Exec Addr    Load Addr    Size         Type   Attr      Idx    E Section Name        Object

    0x00400868        -       0x00001000   Zero   RW            8    .bss                main.o
    0x00401868        -       0x0000002e   Zero   RW           16    .bss                app.o
    0x00401896   0x00030624   0x00000002   PAD
    0x00401898        -       0x00002604   Zero   RW           51    .bss                rwip.o
    0x00403e9c        -       0x00000018   Zero   RW           55    .bss                nvds.o
    0x00403eb4        -       0x000000c8   Zero   RW           59    .bss                prf.o
    0x00403f7c        -       0x00000080   Zero   RW           64    .bss                rf_xvr.o
    0x00403ffc        -       0x0000000c   Zero   RW           69    .bss                spi.o
    0x00404008        -       0x00000100   Zero   RW           77    .bss                uart2.o
    0x00404108        -       0x000000c8   Zero   RW           80    .bss                uart.o
    0x004041d0        -       0x000000c0   Zero   RW          106    .bss                oads.o
    0x00404290        -       0x00000060   Zero   RW          261    .bss                c_5.l(libspace.o)


    Execution Region RAM_STACK_UNUSED (Exec base: 0x0040f2cc, Load base: 0x00030624, Size: 0x00000060, Max: 0x00000060, ABSOLUTE)

    Exec Addr    Load Addr    Size         Type   Attr      Idx    E Section Name        Object

    0x0040f2cc        -       0x00000060   Zero   RW            1    RAM_STACK_UNUSED.bss  anon$$obj.o


    Execution Region RAM_STACK_SVC (Exec base: 0x0040f32c, Load base: 0x00030624, Size: 0x000006f0, Max: 0x000006f0, ABSOLUTE)

    Exec Addr    Load Addr    Size         Type   Attr      Idx    E Section Name        Object

    0x0040f32c        -       0x000006f0   Zero   RW            2    RAM_STACK_SVC.bss   anon$$obj.o


    Execution Region RAM_STACK_IRQ (Exec base: 0x0040fa1c, Load base: 0x00030624, Size: 0x000003f0, Max: 0x000003f0, ABSOLUTE)

    Exec Addr    Load Addr    Size         Type   Attr      Idx    E Section Name        Object

    0x0040fa1c        -       0x000003f0   Zero   RW            3    RAM_STACK_IRQ.bss   anon$$obj.o


    Execution Region RAM_STACK_FIQ (Exec base: 0x0040fe0c, Load base: 0x00030624, Size: 0x000001f0, Max: 0x000001f0, ABSOLUTE)

    Exec Addr    Load Addr    Size         Type   Attr      Idx    E Section Name        Object

    0x0040fe0c        -       0x000001f0   Zero   RW            4    RAM_STACK_FIQ.bss   anon$$obj.o


    Execution Region RAM_BSS_1 (Exec base: 0x00812800, Load base: 0x00030624, Size: 0x000011bc, Max: 0xffffffff, ABSOLUTE)

    Exec Addr    Load Addr    Size         Type   Attr      Idx    E Section Name        Object

    0x00812800        -       0x000011bc   Zero   RW           53    ke_heap             rwip.o


==============================================================================

Image component sizes


      Code (inc. data)   RO Data    RW Data    ZI Data      Debug   Object Name

       284         12         16          0          0          0   ancsc.o
      1232        180        368          0          0          0   ancsc_task.o
       116         28          0          4          0          0   aon_rtc.o
       736        104         47          0         46          0   app.o
      1200        526        289          8          0          0   app_ancsc.o
       164         14         40          2          0          0   app_batt.o
       276        120         16          0          0          0   app_dis.o
       616        208        140          3          0          0   app_f000.o
       440        126        224          1          0          0   app_oads.o
       916        238        320          5          0          0   app_sec.o
      2284        814        338          1          0          0   app_task.o
       936         14         56          0          0          0   bass.o
       716         18         48          0          0          0   bass_task.o
       500         76          0          0          0          0   boot_handlers.o
        92         32          0          0          0          0   boot_vectors.o
       376          8        168          0          0          0   diss.o
       496         14         24          0          0          0   diss_task.o
       124         14          0          0          0          0   dma.o
       532         16        128          0          0          0   f000s.o
      1176        148        218          0          0          0   f000s_task.o
      1792        166          0         12          0          0   flash.o
       356         14          0          4          0          0   gpio.o
       668         48          0          5          0          0   icu.o
       224          4          0          0          0          0   intc.o
      3592         70          0          8          0          0   lcd360.o
       824        328         16          0       4096          0   main.o
       764         30          4          0         24          0   nvds.o
      2036        540        158         16        192          0   oads.o
       828        154         98          0          0          0   oads_task.o
       604         24          0          0        200          0   prf.o
       988          6          0          0          0          0   prf_utils.o
      2312        874         15          0        128          0   rf_xvr.o
       308        138         10          4          0          0   rwble.o
       912        186          0          1      14272          0   rwip.o
       912        124          0          1         12          0   spi.o
       584         38          0         12        200          0   uart.o
       260         24          0          8        256          0   uart2.o
      1112         92          0          0          0          0   w25x40c.o
        52          6          0          0          0          0   wdt.o

    ----------------------------------------------------------------------
     32452       5620       2800        104      22804          0   Object Totals
        96         44         48          0       3376          0   (incl. Generated)
        16          0         11          9          2          0   (incl. Padding)

    ----------------------------------------------------------------------

      Code (inc. data)   RO Data    RW Data    ZI Data      Debug   Library Member Name

         8          0          0          0          0          0   __main.o
       392          6         17          0          0          0   __printf_flags_ss_wp.o
        14          0          0          0          0          0   __printf_wp.o
         0          0          0          0          0          0   __rtentry.o
        44          4          0          0          0          0   __rtentry2.o
         8          4          0          0          0          0   __rtentry5.o
        60          8          0          0          0          0   __scatter.o
        40          0          0          0          0          0   __scatter_copy.o
        44          0          0          0          0          0   __scatter_zi.o
         8          0          0          0          0          0   _printf_a.o
         8          0          0          0          0          0   _printf_c.o
        54          0          0          0          0          0   _printf_char.o
        48          6          0          0          0          0   _printf_char_common.o
        46          0          0          0          0          0   _printf_charcount.o
         8          0          0          0          0          0   _printf_d.o
       116         18          0          0          0          0   _printf_dec.o
         8          0          0          0          0          0   _printf_e.o
         8          0          0          0          0          0   _printf_f.o
      1044         12          0          0          0          0   _printf_fp_dec.o
       736         10         38          0          0          0   _printf_fp_hex.o
       136         16          0          0          0          0   _printf_fp_infnan.o
         8          0          0          0          0          0   _printf_g.o
       160          4         40          0          0          0   _printf_hex_int_ll_ptr.o
         8          0          0          0          0          0   _printf_i.o
       176          0          0          0          0          0   _printf_intcommon.o
        12          0          0          0          0          0   _printf_l.o
         8          0          0          0          0          0   _printf_lc.o
        12          0          0          0          0          0   _printf_ll.o
         8          0          0          0          0          0   _printf_lld.o
         8          0          0          0          0          0   _printf_lli.o
         8          0          0          0          0          0   _printf_llo.o
         8          0          0          0          0          0   _printf_llu.o
         8          0          0          0          0          0   _printf_llx.o
       120         18          0          0          0          0   _printf_longlong_dec.o
         8          0          0          0          0          0   _printf_ls.o
         8          0          0          0          0          0   _printf_n.o
         8          0          0          0          0          0   _printf_o.o
       120         10          0          0          0          0   _printf_oct_int_ll.o
         8          0          0          0          0          0   _printf_p.o
        78          0          0          0          0          0   _printf_pad.o
         0          0          0          0          0          0   _printf_percent.o
         8          0          0          0          0          0   _printf_percent_end.o
         8          0          0          0          0          0   _printf_s.o
        82          0          0          0          0          0   _printf_str.o
        44          0          0          0          0          0   _printf_truncate.o
         8          0          0          0          0          0   _printf_u.o
        54          0          0          0          0          0   _printf_wchar.o
       188          6          8          0          0          0   _printf_wctomb.o
         8          0          0          0          0          0   _printf_x.o
        10          0          0          0          0          0   _sputc.o
        64          0          0          0          0          0   _wcrtomb.o
       216          6        148          0          0          0   bigflt0.o
      2044        128          0          0          0          0   btod.o
        16          0          0          0          0          0   exit.o
         0          0          0          0          0          0   indicate_semi.o
        72          8        272          0          0          0   lc_ctype_c.o
        72          8         28          0          0          0   lc_numeric_c.o
         2          0          0          0          0          0   libinit.o
        30          0          0          0          0          0   libinit2.o
         2          0          0          0          0          0   libshutdown.o
         2          0          0          0          0          0   libshutdown2.o
         0          0          0          0         96          0   libspace.o
       152          0          0          0          0          0   lludiv10.o
        20          4          0          0          0          0   rt_ctype_table.o
        12          4          0          0          0          0   rt_locale_intlibspace.o
         4          0          0          0          0          0   rtexit.o
        12          0          0          0          0          0   rtexit2.o
        44          0          0          0          0          0   rtudiv10.o
       244          4          0          0          0          0   strcmp.o
        12          4          0          0          0          0   sys_exit.o
         4          0          0          0          0          0   use_no_semi.o
        36          4          0          0          0          0   vsprintf.o
        44          0          0          0          0          0   dflt_clz.o
       376         16          0          0          0          0   dmul.o
       184          0          0          0          0          0   dnaninf.o
        16          0          0          0          0          0   dretinf.o
         8          0          0          0          0          0   istatus.o
         4          0          0          0          0          0   printf1.o
         4          0          0          0          0          0   printf2.o
         0          0          0          0          0          0   usenofp.o
        48          4          0          0          0          0   fpclassify.o

    ----------------------------------------------------------------------
      7768        312        552          0         96          0   Library Totals
        10          0          1          0          0          0   (incl. Padding)

    ----------------------------------------------------------------------

      Code (inc. data)   RO Data    RW Data    ZI Data      Debug   Library Name

      7074        292        551          0         96          0   c_5.l
       636         16          0          0          0          0   fz_5s.l
        48          4          0          0          0          0   m_5s.l

    ----------------------------------------------------------------------
      7768        312        552          0         96          0   Library Totals

    ----------------------------------------------------------------------

==============================================================================


      Code (inc. data)   RO Data    RW Data    ZI Data      Debug   

     40220       5932       3352        104      22900          0   Grand Totals
     40220       5932       3352        104      22900          0   ELF Image Totals
     40220       5932       3352        104          0          0   ROM Totals

==============================================================================

    Total RO  Size (Code + RO Data)                43572 (  42.55kB)
    Total RW  Size (RW Data + ZI Data)             23004 (  22.46kB)
    Total ROM Size (Code + RO Data + RW Data)      43676 (  42.65kB)

==============================================================================

